; ModuleID = 'race_01'
target datalayout = "e-p:64:64:64-i1:8:8-i8:8:8-i16:16:16-i32:32:32-i64:64:64-f32:32:32-f64:64:64-v64:64:64-v128:128:128-a0:0:64-s0:64:64-f80:128:128-n8:16:32:64-S128"
target triple = "x86_64-unknown-linux-gnu"

%struct.dim3 = type { i32, i32, i32 }
%struct.cudaChannelFormatDesc = type { i32, i32, i32, i32, i32 }
%struct.cudaExtent = type { i64, i64, i64 }
%struct.cudaArray = type opaque
%struct.cudaPitchedPtr = type { i8*, i64, i64, i64 }
%struct.CUstream_st = type opaque
%struct.cudaMemcpy3DParms = type { %struct.cudaArray*, %struct.cudaPos, %struct.cudaPitchedPtr, %struct.cudaArray*, %struct.cudaPos, %struct.cudaPitchedPtr, %struct.cudaExtent, i32 }
%struct.cudaPos = type { i64, i64, i64 }
%struct.cudaMemcpy3DPeerParms = type { %struct.cudaArray*, %struct.cudaPos, %struct.cudaPitchedPtr, i32, %struct.cudaArray*, %struct.cudaPos, %struct.cudaPitchedPtr, i32, %struct.cudaExtent }

@blockIdx = external global %struct.dim3
@blockDim = external global %struct.dim3
@threadIdx = external global %struct.dim3
@_ZZ13device_globalPjS_iE9my_shared = internal global [1024 x i32] zeroinitializer, section "__shared__", align 16
@.str = private unnamed_addr constant [5 x i8] c"%d, \00", align 1
@.str1 = private unnamed_addr constant [2 x i8] c"\0A\00", align 1
@.str2 = private unnamed_addr constant [22 x i8] c"klee_div_zero_check.c\00", align 1
@.str13 = private unnamed_addr constant [15 x i8] c"divide by zero\00", align 1
@.str24 = private unnamed_addr constant [8 x i8] c"div.err\00", align 1

define void @_Z13device_globalPjS_i(i32* %array_a, i32* %array_b, i32 %num_elements) uwtable noinline {
entry:
  %array_a.addr = alloca i32*, align 8
  %array_b.addr = alloca i32*, align 8
  %num_elements.addr = alloca i32, align 4
  %my_index = alloca i32, align 4
  store i32* %array_a, i32** %array_a.addr, align 8
  store i32* %array_b, i32** %array_b.addr, align 8
  store i32 %num_elements, i32* %num_elements.addr, align 4
  %0 = load i32* getelementptr inbounds (%struct.dim3* @blockIdx, i32 0, i32 0), align 4, !dbg !736
  %1 = load i32* getelementptr inbounds (%struct.dim3* @blockDim, i32 0, i32 0), align 4, !dbg !736
  %mul = mul i32 %0, %1, !dbg !736
  %2 = load i32* getelementptr inbounds (%struct.dim3* @threadIdx, i32 0, i32 0), align 4, !dbg !736
  %add = add i32 %mul, %2, !dbg !736
  store i32 %add, i32* %my_index, align 4, !dbg !736
  %3 = load i32* %my_index, align 4, !dbg !738
  %4 = load i32* %my_index, align 4, !dbg !738
  %idxprom = sext i32 %4 to i64, !dbg !738
  %arrayidx = getelementptr inbounds [1024 x i32]* @_ZZ13device_globalPjS_iE9my_shared, i32 0, i64 %idxprom, !dbg !738
  store i32 %3, i32* %arrayidx, align 4, !dbg !738
  call void @__syncthreads(), !dbg !739
  %5 = load i32* %my_index, align 4, !dbg !740
  %idxprom1 = sext i32 %5 to i64, !dbg !740
  %6 = load i32** %array_a.addr, align 8, !dbg !740
  %arrayidx2 = getelementptr inbounds i32* %6, i64 %idxprom1, !dbg !740
  %7 = load i32* %arrayidx2, align 4, !dbg !740
  %8 = load i32* %my_index, align 4, !dbg !740
  %idxprom3 = sext i32 %8 to i64, !dbg !740
  %9 = load i32** %array_b.addr, align 8, !dbg !740
  %arrayidx4 = getelementptr inbounds i32* %9, i64 %idxprom3, !dbg !740
  %10 = load i32* %arrayidx4, align 4, !dbg !740
  %cmp = icmp eq i32 %7, %10, !dbg !740
  br i1 %cmp, label %if.then, label %if.end12, !dbg !740

if.then:                                          ; preds = %entry
  %11 = load i32* %my_index, align 4, !dbg !741
  %idxprom5 = sext i32 %11 to i64, !dbg !741
  %12 = load i32** %array_b.addr, align 8, !dbg !741
  %arrayidx6 = getelementptr inbounds i32* %12, i64 %idxprom5, !dbg !741
  %13 = load i32* %arrayidx6, align 4, !dbg !741
  %14 = load i32* %my_index, align 4, !dbg !741
  %idxprom7 = sext i32 %14 to i64, !dbg !741
  %arrayidx8 = getelementptr inbounds [1024 x i32]* @_ZZ13device_globalPjS_iE9my_shared, i32 0, i64 %idxprom7, !dbg !741
  %15 = load i32* %arrayidx8, align 4, !dbg !741
  %cmp9 = icmp eq i32 %13, %15, !dbg !741
  br i1 %cmp9, label %if.then10, label %if.end12, !dbg !741

if.then10:                                        ; preds = %if.then
  %16 = load i32* %my_index, align 4, !dbg !743
  %17 = load i32** %array_a.addr, align 8, !dbg !743
  %arrayidx11 = getelementptr inbounds i32* %17, i64 0, !dbg !743
  store i32 %16, i32* %arrayidx11, align 4, !dbg !743
  br label %if.end12, !dbg !745

if.end12:                                         ; preds = %if.then, %if.then10, %entry
  ret void, !dbg !746
}

declare void @llvm.dbg.declare(metadata, metadata) nounwind readnone

declare void @__syncthreads() section "__device__"

define i32 @main(i32 %argc, i8** %argv) uwtable {
entry:
  %retval = alloca i32, align 4
  %argc.addr = alloca i32, align 4
  %argv.addr = alloca i8**, align 8
  %host_array = alloca i32*, align 8
  %device_array_a = alloca i32*, align 8
  %device_array_b = alloca i32*, align 8
  %i = alloca i32, align 4
  %i16 = alloca i32, align 4
  %agg.tmp = alloca %struct.dim3, align 4
  %agg.tmp35 = alloca %struct.dim3, align 4
  %agg.tmp.coerce = alloca { i64, i32 }
  %agg.tmp35.coerce = alloca { i64, i32 }
  %i37 = alloca i32, align 4
  %j = alloca i32, align 4
  store i32 0, i32* %retval
  store i32 %argc, i32* %argc.addr, align 4
  store i8** %argv, i8*** %argv.addr, align 8
  %call = call noalias i8* @malloc(i64 4096) nounwind, !dbg !747
  %0 = bitcast i8* %call to i32*, !dbg !747
  store i32* %0, i32** %host_array, align 8, !dbg !747
  store i32* null, i32** %device_array_a, align 8, !dbg !749
  %1 = bitcast i32** %device_array_a to i8**, !dbg !750
  %call1 = call i32 @cudaMalloc(i8** %1, i64 4096), !dbg !750
  store i32* null, i32** %device_array_b, align 8, !dbg !751
  %2 = bitcast i32** %device_array_b to i8**, !dbg !752
  %call2 = call i32 @cudaMalloc(i8** %2, i64 4096), !dbg !752
  %3 = load i32** %host_array, align 8, !dbg !753
  %cmp = icmp eq i32* %3, null, !dbg !753
  br i1 %cmp, label %if.then, label %if.end, !dbg !753

if.then:                                          ; preds = %entry
  store i32 1, i32* %retval, !dbg !754
  br label %return, !dbg !754

if.end:                                           ; preds = %entry
  %4 = load i32** %device_array_a, align 8, !dbg !756
  %cmp3 = icmp eq i32* %4, null, !dbg !756
  br i1 %cmp3, label %if.then4, label %if.end5, !dbg !756

if.then4:                                         ; preds = %if.end
  store i32 2, i32* %retval, !dbg !757
  br label %return, !dbg !757

if.end5:                                          ; preds = %if.end
  %5 = load i32** %device_array_b, align 8, !dbg !759
  %cmp6 = icmp eq i32* %5, null, !dbg !759
  br i1 %cmp6, label %if.then7, label %if.end8, !dbg !759

if.then7:                                         ; preds = %if.end5
  store i32 3, i32* %retval, !dbg !760
  br label %return, !dbg !760

if.end8:                                          ; preds = %if.end5
  store i32 0, i32* %i, align 4, !dbg !762
  br label %for.cond, !dbg !762

for.cond:                                         ; preds = %for.inc, %if.end8
  %6 = load i32* %i, align 4, !dbg !762
  %cmp9 = icmp slt i32 %6, 1024, !dbg !762
  br i1 %cmp9, label %for.body, label %for.end, !dbg !762

for.body:                                         ; preds = %for.cond
  %7 = load i32* %i, align 4, !dbg !764
  %int_cast_to_i64 = zext i32 2 to i64
  call void @klee_div_zero_check(i64 %int_cast_to_i64)
  %rem = srem i32 %7, 2, !dbg !764
  %cmp10 = icmp eq i32 %rem, 0, !dbg !764
  %8 = load i32* %i, align 4, !dbg !766
  br i1 %cmp10, label %if.then11, label %if.else, !dbg !764

if.then11:                                        ; preds = %for.body
  %9 = load i32* %i, align 4, !dbg !766
  %idxprom = sext i32 %9 to i64, !dbg !766
  %10 = load i32** %host_array, align 8, !dbg !766
  %arrayidx = getelementptr inbounds i32* %10, i64 %idxprom, !dbg !766
  store i32 %8, i32* %arrayidx, align 4, !dbg !766
  br label %for.inc, !dbg !768

if.else:                                          ; preds = %for.body
  %idxprom12 = sext i32 %8 to i64, !dbg !769
  %11 = load i32** %host_array, align 8, !dbg !769
  %arrayidx13 = getelementptr inbounds i32* %11, i64 %idxprom12, !dbg !769
  store i32 0, i32* %arrayidx13, align 4, !dbg !769
  br label %for.inc

for.inc:                                          ; preds = %if.then11, %if.else
  %12 = load i32* %i, align 4, !dbg !762
  %inc = add nsw i32 %12, 1, !dbg !762
  store i32 %inc, i32* %i, align 4, !dbg !762
  br label %for.cond, !dbg !762

for.end:                                          ; preds = %for.cond
  %13 = load i32** %device_array_a, align 8, !dbg !771
  %14 = bitcast i32* %13 to i8*, !dbg !771
  %15 = load i32** %host_array, align 8, !dbg !771
  %16 = bitcast i32* %15 to i8*, !dbg !771
  %call15 = call i32 @cudaMemcpy(i8* %14, i8* %16, i64 1024, i32 1), !dbg !771
  store i32 0, i32* %i16, align 4, !dbg !772
  br label %for.cond17, !dbg !772

for.cond17:                                       ; preds = %for.inc31, %for.end
  %17 = load i32* %i16, align 4, !dbg !772
  %cmp18 = icmp slt i32 %17, 1024, !dbg !772
  br i1 %cmp18, label %for.body19, label %for.end33, !dbg !772

for.body19:                                       ; preds = %for.cond17
  %18 = load i32* %i16, align 4, !dbg !774
  %int_cast_to_i641 = zext i32 2 to i64
  call void @klee_div_zero_check(i64 %int_cast_to_i641)
  %rem20 = srem i32 %18, 2, !dbg !774
  %cmp21 = icmp eq i32 %rem20, 0, !dbg !774
  br i1 %cmp21, label %land.lhs.true, label %if.else27, !dbg !774

land.lhs.true:                                    ; preds = %for.body19
  %19 = load i32* %i16, align 4, !dbg !774
  %int_cast_to_i642 = zext i32 3 to i64
  call void @klee_div_zero_check(i64 %int_cast_to_i642)
  %rem22 = srem i32 %19, 3, !dbg !774
  %cmp23 = icmp eq i32 %rem22, 0, !dbg !774
  br i1 %cmp23, label %if.then24, label %if.else27, !dbg !774

if.then24:                                        ; preds = %land.lhs.true
  %20 = load i32* %i16, align 4, !dbg !776
  %21 = load i32* %i16, align 4, !dbg !776
  %idxprom25 = sext i32 %21 to i64, !dbg !776
  %22 = load i32** %host_array, align 8, !dbg !776
  %arrayidx26 = getelementptr inbounds i32* %22, i64 %idxprom25, !dbg !776
  store i32 %20, i32* %arrayidx26, align 4, !dbg !776
  br label %for.inc31, !dbg !778

if.else27:                                        ; preds = %land.lhs.true, %for.body19
  %23 = load i32* %i16, align 4, !dbg !779
  %idxprom28 = sext i32 %23 to i64, !dbg !779
  %24 = load i32** %host_array, align 8, !dbg !779
  %arrayidx29 = getelementptr inbounds i32* %24, i64 %idxprom28, !dbg !779
  store i32 0, i32* %arrayidx29, align 4, !dbg !779
  br label %for.inc31

for.inc31:                                        ; preds = %if.then24, %if.else27
  %25 = load i32* %i16, align 4, !dbg !772
  %inc32 = add nsw i32 %25, 1, !dbg !772
  store i32 %inc32, i32* %i16, align 4, !dbg !772
  br label %for.cond17, !dbg !772

for.end33:                                        ; preds = %for.cond17
  %26 = load i32** %device_array_b, align 8, !dbg !781
  %27 = bitcast i32* %26 to i8*, !dbg !781
  %28 = load i32** %host_array, align 8, !dbg !781
  %29 = bitcast i32* %28 to i8*, !dbg !781
  %call34 = call i32 @cudaMemcpy(i8* %27, i8* %29, i64 1024, i32 1), !dbg !781
  call void @_ZN4dim3C1Ejjj(%struct.dim3* %agg.tmp, i32 1, i32 1, i32 1), !dbg !782
  call void @_ZN4dim3C1Ejjj(%struct.dim3* %agg.tmp35, i32 1024, i32 1, i32 1), !dbg !782
  %30 = bitcast { i64, i32 }* %agg.tmp.coerce to i8*, !dbg !782
  %31 = bitcast %struct.dim3* %agg.tmp to i8*, !dbg !782
  %32 = call i8* @memcpy(i8* %30, i8* %31, i64 12)
  %33 = getelementptr { i64, i32 }* %agg.tmp.coerce, i32 0, i32 0, !dbg !782
  %34 = load i64* %33, align 1, !dbg !782
  %35 = getelementptr { i64, i32 }* %agg.tmp.coerce, i32 0, i32 1, !dbg !782
  %36 = load i32* %35, align 1, !dbg !782
  %37 = bitcast { i64, i32 }* %agg.tmp35.coerce to i8*, !dbg !782
  %38 = bitcast %struct.dim3* %agg.tmp35 to i8*, !dbg !782
  %39 = call i8* @memcpy(i8* %37, i8* %38, i64 12)
  %40 = getelementptr { i64, i32 }* %agg.tmp35.coerce, i32 0, i32 0, !dbg !782
  %41 = load i64* %40, align 1, !dbg !782
  %42 = getelementptr { i64, i32 }* %agg.tmp35.coerce, i32 0, i32 1, !dbg !782
  %43 = load i32* %42, align 1, !dbg !782
  call void (i64, i32, i64, i32, ...)* @__set_CUDAConfig(i64 %34, i32 %36, i64 %41, i32 %43), !dbg !782
  %44 = load i32** %device_array_a, align 8, !dbg !784
  %45 = load i32** %device_array_b, align 8, !dbg !784
  call void @_Z13device_globalPjS_i(i32* %44, i32* %45, i32 1024), !dbg !784
  %46 = load i32** %host_array, align 8, !dbg !785
  %47 = bitcast i32* %46 to i8*, !dbg !785
  %48 = load i32** %device_array_a, align 8, !dbg !785
  %49 = bitcast i32* %48 to i8*, !dbg !785
  %call36 = call i32 @cudaMemcpy(i8* %47, i8* %49, i64 1024, i32 2), !dbg !785
  store i32 0, i32* %i37, align 4, !dbg !786
  br label %for.cond38, !dbg !786

for.cond38:                                       ; preds = %for.end49, %for.end33
  %50 = load i32* %i37, align 4, !dbg !786
  %cmp39 = icmp slt i32 %50, 1024, !dbg !786
  br i1 %cmp39, label %for.body40, label %for.end53, !dbg !786

for.body40:                                       ; preds = %for.cond38
  store i32 0, i32* %j, align 4, !dbg !788
  br label %for.cond41, !dbg !788

for.cond41:                                       ; preds = %for.body43, %for.body40
  %51 = load i32* %j, align 4, !dbg !788
  %cmp42 = icmp slt i32 %51, 1024, !dbg !788
  br i1 %cmp42, label %for.body43, label %for.end49, !dbg !788

for.body43:                                       ; preds = %for.cond41
  %52 = load i32* %i37, align 4, !dbg !791
  %53 = load i32* %j, align 4, !dbg !791
  %add = add nsw i32 %52, %53, !dbg !791
  %idxprom44 = sext i32 %add to i64, !dbg !791
  %54 = load i32** %host_array, align 8, !dbg !791
  %arrayidx45 = getelementptr inbounds i32* %54, i64 %idxprom44, !dbg !791
  %55 = load i32* %arrayidx45, align 4, !dbg !791
  %call46 = call i32 (i8*, ...)* @printf(i8* getelementptr inbounds ([5 x i8]* @.str, i32 0, i32 0), i32 %55), !dbg !791
  %56 = load i32* %j, align 4, !dbg !788
  %inc48 = add nsw i32 %56, 1, !dbg !788
  store i32 %inc48, i32* %j, align 4, !dbg !788
  br label %for.cond41, !dbg !788

for.end49:                                        ; preds = %for.cond41
  %call50 = call i32 (i8*, ...)* @printf(i8* getelementptr inbounds ([2 x i8]* @.str1, i32 0, i32 0)), !dbg !793
  %57 = load i32* %i37, align 4, !dbg !786
  %add52 = add nsw i32 %57, 1024, !dbg !786
  store i32 %add52, i32* %i37, align 4, !dbg !786
  br label %for.cond38, !dbg !786

for.end53:                                        ; preds = %for.cond38
  %58 = load i32** %host_array, align 8, !dbg !794
  %59 = bitcast i32* %58 to i8*, !dbg !794
  call void @free(i8* %59) nounwind, !dbg !794
  %60 = load i32** %device_array_a, align 8, !dbg !795
  %61 = bitcast i32* %60 to i8*, !dbg !795
  %call54 = call i32 @cudaFree(i8* %61), !dbg !795
  %62 = load i32** %device_array_b, align 8, !dbg !796
  %63 = bitcast i32* %62 to i8*, !dbg !796
  %call55 = call i32 @cudaFree(i8* %63), !dbg !796
  br label %return, !dbg !797

return:                                           ; preds = %for.end53, %if.then7, %if.then4, %if.then
  %64 = load i32* %retval, !dbg !797
  ret i32 %64, !dbg !797
}

declare noalias i8* @malloc(i64) nounwind

declare void @__set_CUDAConfig(i64, i32, i64, i32, ...)

define linkonce_odr void @_ZN4dim3C1Ejjj(%struct.dim3* %this, i32 %vx, i32 %vy, i32 %vz) unnamed_addr uwtable section "__device__" align 2 {
entry:
  %this.addr = alloca %struct.dim3*, align 8
  %vx.addr = alloca i32, align 4
  %vy.addr = alloca i32, align 4
  %vz.addr = alloca i32, align 4
  store %struct.dim3* %this, %struct.dim3** %this.addr, align 8
  store i32 %vx, i32* %vx.addr, align 4
  store i32 %vy, i32* %vy.addr, align 4
  store i32 %vz, i32* %vz.addr, align 4
  %this1 = load %struct.dim3** %this.addr
  %0 = load i32* %vx.addr, align 4, !dbg !798
  %1 = load i32* %vy.addr, align 4, !dbg !798
  %2 = load i32* %vz.addr, align 4, !dbg !798
  call void @_ZN4dim3C2Ejjj(%struct.dim3* %this1, i32 %0, i32 %1, i32 %2), !dbg !798
  ret void, !dbg !798
}

declare void @llvm.memcpy.p0i8.p0i8.i64(i8* nocapture, i8* nocapture, i64, i32, i1) nounwind

declare i32 @printf(i8*, ...)

declare void @free(i8*) nounwind

define linkonce_odr void @_ZN4dim3C2Ejjj(%struct.dim3* %this, i32 %vx, i32 %vy, i32 %vz) unnamed_addr nounwind uwtable section "__device__" align 2 {
entry:
  %this.addr = alloca %struct.dim3*, align 8
  %vx.addr = alloca i32, align 4
  %vy.addr = alloca i32, align 4
  %vz.addr = alloca i32, align 4
  store %struct.dim3* %this, %struct.dim3** %this.addr, align 8
  store i32 %vx, i32* %vx.addr, align 4
  store i32 %vy, i32* %vy.addr, align 4
  store i32 %vz, i32* %vz.addr, align 4
  %this1 = load %struct.dim3** %this.addr
  %x = getelementptr inbounds %struct.dim3* %this1, i32 0, i32 0, !dbg !799
  %0 = load i32* %vx.addr, align 4, !dbg !799
  store i32 %0, i32* %x, align 4, !dbg !799
  %y = getelementptr inbounds %struct.dim3* %this1, i32 0, i32 1, !dbg !799
  %1 = load i32* %vy.addr, align 4, !dbg !799
  store i32 %1, i32* %y, align 4, !dbg !799
  %z = getelementptr inbounds %struct.dim3* %this1, i32 0, i32 2, !dbg !799
  %2 = load i32* %vz.addr, align 4, !dbg !799
  store i32 %2, i32* %z, align 4, !dbg !799
  ret void, !dbg !800
}

define void @klee_div_zero_check(i64 %z) nounwind uwtable {
entry:
  %cmp = icmp eq i64 %z, 0, !dbg !802
  br i1 %cmp, label %if.then, label %if.end, !dbg !802

if.then:                                          ; preds = %entry
  tail call void @klee_report_error(i8* getelementptr inbounds ([22 x i8]* @.str2, i64 0, i64 0), i32 14, i8* getelementptr inbounds ([15 x i8]* @.str13, i64 0, i64 0), i8* getelementptr inbounds ([8 x i8]* @.str24, i64 0, i64 0)) noreturn nounwind, !dbg
  unreachable, !dbg !804

if.end:                                           ; preds = %entry
  ret void, !dbg !805
}

declare void @klee_report_error(i8*, i32, i8*, i8*) noreturn

declare void @llvm.dbg.value(metadata, i64, metadata) nounwind readnone

define i8* @memcpy(i8* %destaddr, i8* nocapture %srcaddr, i64 %len) nounwind uwtable {
entry:
  %cmp3 = icmp eq i64 %len, 0, !dbg !806
  br i1 %cmp3, label %while.end, label %while.body, !dbg !806

while.body:                                       ; preds = %while.body, %entry
  %src.06 = phi i8* [ %incdec.ptr, %while.body ], [ %srcaddr, %entry ]
  %dest.05 = phi i8* [ %incdec.ptr1, %while.body ], [ %destaddr, %entry ]
  %len.addr.04 = phi i64 [ %dec, %while.body ], [ %len, %entry ]
  %dec = add i64 %len.addr.04, -1, !dbg !806
  %incdec.ptr = getelementptr inbounds i8* %src.06, i64 1, !dbg !807
  %0 = load i8* %src.06, align 1, !dbg !807, !tbaa !808
  %incdec.ptr1 = getelementptr inbounds i8* %dest.05, i64 1, !dbg !807
  store i8 %0, i8* %dest.05, align 1, !dbg !807, !tbaa !808
  %cmp = icmp eq i64 %dec, 0, !dbg !806
  br i1 %cmp, label %while.end, label %while.body, !dbg !806

while.end:                                        ; preds = %while.body, %entry
  ret i8* %destaddr, !dbg !810
}

define i8* @memset(i8* %dst, i32 %s, i64 %count) nounwind uwtable {
entry:
  %cmp2 = icmp eq i64 %count, 0, !dbg !811
  br i1 %cmp2, label %while.end, label %while.body.lr.ph, !dbg !811

while.body.lr.ph:                                 ; preds = %entry
  %conv = trunc i32 %s to i8, !dbg !812
  br label %while.body, !dbg !811

while.body:                                       ; preds = %while.body, %while.body.lr.ph
  %a.04 = phi i8* [ %dst, %while.body.lr.ph ], [ %incdec.ptr, %while.body ]
  %count.addr.03 = phi i64 [ %count, %while.body.lr.ph ], [ %dec, %while.body ]
  %dec = add i64 %count.addr.03, -1, !dbg !811
  %incdec.ptr = getelementptr inbounds i8* %a.04, i64 1, !dbg !812
  store volatile i8 %conv, i8* %a.04, align 1, !dbg !812, !tbaa !808
  %cmp = icmp eq i64 %dec, 0, !dbg !811
  br i1 %cmp, label %while.end, label %while.body, !dbg !811

while.end:                                        ; preds = %while.body, %entry
  ret i8* %dst, !dbg !813
}

define i32 @cudaArrayGetInfo(%struct.cudaChannelFormatDesc* nocapture %desc, %struct.cudaExtent* nocapture %extent, i32* nocapture %flags, %struct.cudaArray* nocapture %array) nounwind uwtable readnone {
entry:
  ret i32 0, !dbg !814
}

define i32 @cudaFree(i8* nocapture %devPtr) nounwind uwtable {
entry:
  tail call void @free(i8* %devPtr) nounwind, !dbg !816
  ret i32 0, !dbg !818
}

define i32 @cudaFreeArray(%struct.cudaArray* nocapture %array) nounwind uwtable {
entry:
  %0 = bitcast %struct.cudaArray* %array to i8*, !dbg !819
  tail call void @free(i8* %0) nounwind, !dbg !819
  ret i32 0, !dbg !821
}

define i32 @cudaFreeHost(i8* nocapture %ptr) nounwind uwtable {
entry:
  tail call void @free(i8* %ptr) nounwind, !dbg !822
  ret i32 0, !dbg !824
}

define i32 @cudaGetSymbolAddress(i8** nocapture %devPtr, i8* nocapture %symbol) nounwind uwtable readnone {
entry:
  ret i32 0, !dbg !825
}

define i32 @cudaGetSymbolSize(i64* nocapture %size, i8* nocapture %symbol) nounwind uwtable readnone {
entry:
  ret i32 0, !dbg !827
}

define i32 @cudaHostAlloc(i8** nocapture %pHost, i64 %size, i32 %flags) nounwind uwtable readnone {
entry:
  ret i32 0, !dbg !829
}

define i32 @cudaHostGetDevicePointer(i8** nocapture %pDevice, i8* nocapture %pHost, i32 %flags) nounwind uwtable readnone {
entry:
  ret i32 0, !dbg !831
}

define i32 @cudaHostGetFlags(i32* nocapture %pFlags, i8* nocapture %pHost) nounwind uwtable readnone {
entry:
  ret i32 0, !dbg !833
}

define i32 @cudaHostRegister(i8* nocapture %ptr, i64 %size, i32 %flags) nounwind uwtable readnone {
entry:
  ret i32 0, !dbg !835
}

define i32 @cudaHostUnregister(i8* nocapture %ptr) nounwind uwtable readnone {
entry:
  ret i32 0, !dbg !837
}

define i32 @cudaMalloc(i8** nocapture %devPtr, i64 %size) nounwind uwtable {
entry:
  tail call void @__set_device() nounwind, !dbg !839
  %call = tail call noalias i8* @malloc(i64 %size) nounwind, !dbg !841
  store i8* %call, i8** %devPtr, align 8, !dbg !841, !tbaa !842
  tail call void @__clear_device() nounwind, !dbg !843
  ret i32 0, !dbg !844
}

declare void @__set_device()

declare void @__clear_device()

define i32 @cudaMalloc3D(%struct.cudaPitchedPtr* nocapture %pitchedDevPtr, %struct.cudaExtent* nocapture byval align 8 %extent) nounwind uwtable readnone {
entry:
  ret i32 0, !dbg !845
}

define i32 @cudaMalloc3DArray(%struct.cudaArray** nocapture %array, %struct.cudaChannelFormatDesc* nocapture %desc, %struct.cudaExtent* nocapture byval align 8 %extent, i32 %flags) nounwind uwtable readnone {
entry:
  ret i32 0, !dbg !847
}

define i32 @cudaMallocArray(%struct.cudaArray** nocapture %array, %struct.cudaChannelFormatDesc* nocapture %desc, i64 %width, i64 %height, i32 %flags) nounwind uwtable readnone {
entry:
  ret i32 0, !dbg !849
}

define i32 @cudaMallocHost(i8** nocapture %ptr, i64 %size) nounwind uwtable {
entry:
  tail call void @__set_host() nounwind, !dbg !851
  %call = tail call noalias i8* @malloc(i64 %size) nounwind, !dbg !853
  store i8* %call, i8** %ptr, align 8, !dbg !853, !tbaa !842
  tail call void @__clear_host() nounwind, !dbg !854
  ret i32 0, !dbg !855
}

declare void @__set_host()

declare void @__clear_host()

define i32 @cudaMallocPitch(i8** nocapture %devPtr, i64* nocapture %pitch, i64 %width, i64 %height) nounwind uwtable readnone {
entry:
  ret i32 0, !dbg !856
}

define i32 @cudaMemcpy(i8* nocapture %dst, i8* nocapture %src, i64 %count, i32 %kind) nounwind uwtable {
entry:
  %0 = call i8* @memcpy(i8* %dst, i8* %src, i64 %count)
  ret i32 0, !dbg !858
}

define i32 @cudaMemcpy2D(i8* nocapture %dst, i64 %dpitch, i8* nocapture %src, i64 %spitch, i64 %width, i64 %height, i32 %kind) nounwind uwtable readnone {
entry:
  ret i32 0, !dbg !860
}

define i32 @cudaMemcpy2DArrayToArray(%struct.cudaArray* nocapture %dst, i64 %wOffsetDst, i64 %hOffsetDst, %struct.cudaArray* nocapture %src, i64 %wOffsetSrc, i64 %hOffsetSrc, i64 %width, i64 %height, i32 %kind) nounwind uwtable readnone {
entry:
  ret i32 0, !dbg !862
}

define i32 @cudaMemcpy2DAsync(i8* nocapture %dst, i64 %dpitch, i8* nocapture %src, i64 %spitch, i64 %width, i64 %height, i32 %kind, %struct.CUstream_st* nocapture %stream) nounwind uwtable readnone {
entry:
  ret i32 0, !dbg !864
}

define i32 @cudaMemcpy2DFromArray(i8* nocapture %dst, i64 %dpitch, %struct.cudaArray* nocapture %src, i64 %wOffset, i64 %hOffset, i64 %width, i64 %height, i32 %kind) nounwind uwtable readnone {
entry:
  ret i32 0, !dbg !866
}

define i32 @cudaMemcpy2DFromArrayAsync(i8* nocapture %dst, i64 %dpitch, %struct.cudaArray* nocapture %src, i64 %wOffset, i64 %hOffset, i64 %width, i64 %height, i32 %kind, %struct.CUstream_st* nocapture %stream) nounwind uwtable readnone {
entry:
  ret i32 0, !dbg !868
}

define i32 @cudaMemcpy2DToArray(%struct.cudaArray* nocapture %dst, i64 %wOffset, i64 %hOffset, i8* nocapture %src, i64 %spitch, i64 %width, i64 %height, i32 %kind) nounwind uwtable readnone {
entry:
  ret i32 0, !dbg !870
}

define i32 @cudaMemcpy2DToArrayAsync(%struct.cudaArray* nocapture %dst, i64 %wOffset, i64 %hOffset, i8* nocapture %src, i64 %spitch, i64 %width, i64 %height, i32 %kind, %struct.CUstream_st* nocapture %stream) nounwind uwtable readnone {
entry:
  ret i32 0, !dbg !872
}

define i32 @cudaMemcpy3D(%struct.cudaMemcpy3DParms* nocapture %p) nounwind uwtable readnone {
entry:
  ret i32 0, !dbg !874
}

define i32 @cudaMemcpy3DAsync(%struct.cudaMemcpy3DParms* nocapture %p, %struct.CUstream_st* nocapture %stream) nounwind uwtable readnone {
entry:
  ret i32 0, !dbg !876
}

define i32 @cudaMemcpy3DPeer(%struct.cudaMemcpy3DPeerParms* nocapture %p) nounwind uwtable readnone {
entry:
  ret i32 0, !dbg !878
}

define i32 @cudaMemcpy3DPeerAsync(%struct.cudaMemcpy3DPeerParms* nocapture %p, %struct.CUstream_st* nocapture %stream) nounwind uwtable readnone {
entry:
  ret i32 0, !dbg !880
}

define i32 @cudaMemcpyArrayToArray(%struct.cudaArray* nocapture %dst, i64 %wOffsetDst, i64 %hOffsetDst, %struct.cudaArray* nocapture %src, i64 %wOffsetSrc, i64 %hOffsetSrc, i64 %count, i32 %kind) nounwind uwtable readnone {
entry:
  ret i32 0, !dbg !882
}

define i32 @cudaMemcpyAsync(i8* nocapture %dst, i8* nocapture %src, i64 %count, i32 %kind, %struct.CUstream_st* nocapture %stream) nounwind uwtable readnone {
entry:
  ret i32 0, !dbg !884
}

define i32 @cudaMemcpyFromArray(i8* nocapture %dst, %struct.cudaArray* nocapture %src, i64 %wOffset, i64 %hOffset, i64 %count, i32 %kind) nounwind uwtable readnone {
entry:
  ret i32 0, !dbg !886
}

define i32 @cudaMemcpyFromArrayAsync(i8* nocapture %dst, %struct.cudaArray* nocapture %src, i64 %wOffset, i64 %hOffset, i64 %count, i32 %kind, %struct.CUstream_st* nocapture %stream) nounwind uwtable readnone {
entry:
  ret i32 0, !dbg !888
}

define i32 @cudaMemcpyFromSymbol(i8* nocapture %dst, i8* nocapture %symbol, i64 %count, i64 %offset, i32 %kind) nounwind uwtable readnone {
entry:
  ret i32 0, !dbg !890
}

define i32 @cudaMemcpyFromSymbolAsync(i8* nocapture %dst, i8* nocapture %symbol, i64 %count, i64 %offset, i32 %kind, %struct.CUstream_st* nocapture %stream) nounwind uwtable readnone {
entry:
  ret i32 0, !dbg !892
}

define i32 @cudaMemcpyPeer(i8* nocapture %dst, i32 %dstDevice, i8* nocapture %src, i32 %srcDevice, i64 %count) nounwind uwtable {
entry:
  %0 = call i8* @memcpy(i8* %dst, i8* %src, i64 %count)
  ret i32 0, !dbg !894
}

define i32 @cudaMemcpyPeerAsync(i8* nocapture %dst, i32 %dstDevice, i8* nocapture %src, i32 %srcDevice, i64 %count, %struct.CUstream_st* nocapture %stream) nounwind uwtable {
entry:
  %0 = call i8* @memcpy(i8* %dst, i8* %src, i64 %count)
  ret i32 0, !dbg !896
}

define i32 @cudaMemcpyToArray(%struct.cudaArray* nocapture %dst, i64 %wOffset, i64 %hOffset, i8* nocapture %src, i64 %count, i32 %kind) nounwind uwtable readnone {
entry:
  ret i32 0, !dbg !898
}

define i32 @cudaMemcpyToArrayAsync(%struct.cudaArray* nocapture %dst, i64 %wOffset, i64 %hOffset, i8* nocapture %src, i64 %count, i32 %kind, %struct.CUstream_st* nocapture %stream) nounwind uwtable readnone {
entry:
  ret i32 0, !dbg !900
}

define i32 @cudaMemcpyToSymbol(i8* nocapture %symbol, i8* nocapture %src, i64 %count, i64 %offset, i32 %kind) nounwind uwtable {
entry:
  %add.ptr = getelementptr inbounds i8* %symbol, i64 %offset, !dbg !902
  %0 = call i8* @memcpy(i8* %add.ptr, i8* %src, i64 %count)
  ret i32 0, !dbg !904
}

define i32 @cudaMemcpyToSymbolAsync(i8* nocapture %symbol, i8* nocapture %src, i64 %count, i64 %offset, i32 %kind, %struct.CUstream_st* nocapture %stream) nounwind uwtable readnone {
entry:
  ret i32 0, !dbg !905
}

define i32 @cudaMemGetInfo(i64* nocapture %free, i64* nocapture %total) nounwind uwtable readnone {
entry:
  ret i32 0, !dbg !907
}

define i32 @cudaMemset(i8* nocapture %devPtr, i32 %value, i64 %count) nounwind uwtable {
entry:
  %0 = trunc i32 %value to i8, !dbg !909
  %1 = zext i8 %0 to i32
  %2 = call i8* @memset(i8* %devPtr, i32 %1, i64 %count)
  ret i32 0, !dbg !911
}

declare void @llvm.memset.p0i8.i64(i8* nocapture, i8, i64, i32, i1) nounwind

define i32 @cudaMemset2D(i8* nocapture %devPtr, i64 %pitch, i32 %value, i64 %width, i64 %height) nounwind uwtable readnone {
entry:
  ret i32 0, !dbg !912
}

define i32 @cudaMemset2DAsync(i8* nocapture %devPtr, i64 %pitch, i32 %value, i64 %width, i64 %height, %struct.CUstream_st* nocapture %stream) nounwind uwtable readnone {
entry:
  ret i32 0, !dbg !914
}

define i32 @cudaMemset3D(%struct.cudaPitchedPtr* nocapture byval align 8 %pitchedDevPtr, i32 %value, %struct.cudaExtent* nocapture byval align 8 %extent) nounwind uwtable readnone {
entry:
  ret i32 0, !dbg !916
}

define i32 @cudaMemset3DAsync(%struct.cudaPitchedPtr* nocapture byval align 8 %pitchedDevPtr, i32 %value, %struct.cudaExtent* nocapture byval align 8 %extent, %struct.CUstream_st* nocapture %stream) nounwind uwtable readnone {
entry:
  ret i32 0, !dbg !918
}

define i32 @cudaMemsetAsync(i8* nocapture %devPtr, i32 %value, i64 %count, %struct.CUstream_st* nocapture %stream) nounwind uwtable readnone {
entry:
  ret i32 0, !dbg !920
}

!llvm.dbg.cu = !{!0, !77, !88, !110, !126, !143}

!0 = metadata !{i32 786449, i32 0, i32 4, metadata !"race_01.cpp", metadata !"/home/ibriggs/fairytale/race_01", metadata !"clang version 3.2 (tags/RELEASE_32/final)", i1 true, i1 false, metadata !"", i32 0, metadata !1, metadata !11, metadata !13, metada
!1 = metadata !{metadata !2}
!2 = metadata !{metadata !3}
!3 = metadata !{i32 786436, null, metadata !"cudaMemcpyKind", metadata !4, i32 705, i64 32, i64 32, i32 0, i32 0, null, metadata !5, i32 0, i32 0} ; [ DW_TAG_enumeration_type ] [cudaMemcpyKind] [line 705, size 32, align 32, offset 0] [from ]
!4 = metadata !{i32 786473, metadata !"/home/ibriggs/Gklee/Gklee/include/cuda/driver_types.h", metadata !"/home/ibriggs/fairytale/race_01", null} ; [ DW_TAG_file_type ]
!5 = metadata !{metadata !6, metadata !7, metadata !8, metadata !9, metadata !10}
!6 = metadata !{i32 786472, metadata !"cudaMemcpyHostToHost", i64 0} ; [ DW_TAG_enumerator ] [cudaMemcpyHostToHost :: 0]
!7 = metadata !{i32 786472, metadata !"cudaMemcpyHostToDevice", i64 1} ; [ DW_TAG_enumerator ] [cudaMemcpyHostToDevice :: 1]
!8 = metadata !{i32 786472, metadata !"cudaMemcpyDeviceToHost", i64 2} ; [ DW_TAG_enumerator ] [cudaMemcpyDeviceToHost :: 2]
!9 = metadata !{i32 786472, metadata !"cudaMemcpyDeviceToDevice", i64 3} ; [ DW_TAG_enumerator ] [cudaMemcpyDeviceToDevice :: 3]
!10 = metadata !{i32 786472, metadata !"cudaMemcpyDefault", i64 4} ; [ DW_TAG_enumerator ] [cudaMemcpyDefault :: 4]
!11 = metadata !{metadata !12}
!12 = metadata !{i32 0}
!13 = metadata !{metadata !14}
!14 = metadata !{metadata !15, metadata !22, metadata !28, metadata !70}
!15 = metadata !{i32 786478, i32 0, metadata !16, metadata !"device_global", metadata !"device_global", metadata !"_Z13device_globalPjS_i", metadata !16, i32 6, metadata !17, i1 false, i1 true, i32 0, i32 0, null, i32 256, i1 false, void (i32*, i32*, i32
!16 = metadata !{i32 786473, metadata !"race_01.cpp", metadata !"/home/ibriggs/fairytale/race_01", null} ; [ DW_TAG_file_type ]
!17 = metadata !{i32 786453, i32 0, metadata !"", i32 0, i32 0, i64 0, i64 0, i64 0, i32 0, null, metadata !18, i32 0, i32 0} ; [ DW_TAG_subroutine_type ] [line 0, size 0, align 0, offset 0] [from ]
!18 = metadata !{null, metadata !19, metadata !19, metadata !21}
!19 = metadata !{i32 786447, null, metadata !"", null, i32 0, i64 64, i64 64, i64 0, i32 0, metadata !20} ; [ DW_TAG_pointer_type ] [line 0, size 64, align 64, offset 0] [from unsigned int]
!20 = metadata !{i32 786468, null, metadata !"unsigned int", null, i32 0, i64 32, i64 32, i64 0, i32 0, i32 7} ; [ DW_TAG_base_type ] [unsigned int] [line 0, size 32, align 32, offset 0, enc DW_ATE_unsigned]
!21 = metadata !{i32 786468, null, metadata !"int", null, i32 0, i64 32, i64 32, i64 0, i32 0, i32 5} ; [ DW_TAG_base_type ] [int] [line 0, size 32, align 32, offset 0, enc DW_ATE_signed]
!22 = metadata !{i32 786478, i32 0, metadata !16, metadata !"main", metadata !"main", metadata !"", metadata !16, i32 20, metadata !23, i1 false, i1 true, i32 0, i32 0, null, i32 256, i1 false, i32 (i32, i8**)* @main, null, null, metadata !11, i32 20} ; 
!23 = metadata !{i32 786453, i32 0, metadata !"", i32 0, i32 0, i64 0, i64 0, i64 0, i32 0, null, metadata !24, i32 0, i32 0} ; [ DW_TAG_subroutine_type ] [line 0, size 0, align 0, offset 0] [from ]
!24 = metadata !{metadata !21, metadata !21, metadata !25}
!25 = metadata !{i32 786447, null, metadata !"", null, i32 0, i64 64, i64 64, i64 0, i32 0, metadata !26} ; [ DW_TAG_pointer_type ] [line 0, size 64, align 64, offset 0] [from ]
!26 = metadata !{i32 786447, null, metadata !"", null, i32 0, i64 64, i64 64, i64 0, i32 0, metadata !27} ; [ DW_TAG_pointer_type ] [line 0, size 64, align 64, offset 0] [from char]
!27 = metadata !{i32 786468, null, metadata !"char", null, i32 0, i64 8, i64 8, i64 0, i32 0, i32 6} ; [ DW_TAG_base_type ] [char] [line 0, size 8, align 8, offset 0, enc DW_ATE_signed_char]
!28 = metadata !{i32 786478, i32 0, null, metadata !"dim3", metadata !"dim3", metadata !"_ZN4dim3C1Ejjj", metadata !29, i32 419, metadata !30, i1 false, i1 true, i32 0, i32 0, null, i32 256, i1 false, void (%struct.dim3*, i32, i32, i32)* @_ZN4dim3C1Ejjj,
!29 = metadata !{i32 786473, metadata !"/home/ibriggs/Gklee/Gklee/include/cuda/vector_types.h", metadata !"/home/ibriggs/fairytale/race_01", null} ; [ DW_TAG_file_type ]
!30 = metadata !{i32 786453, i32 0, metadata !"", i32 0, i32 0, i64 0, i64 0, i64 0, i32 0, null, metadata !31, i32 0, i32 0} ; [ DW_TAG_subroutine_type ] [line 0, size 0, align 0, offset 0] [from ]
!31 = metadata !{null, metadata !32, metadata !20, metadata !20, metadata !20}
!32 = metadata !{i32 786447, i32 0, metadata !"", i32 0, i32 0, i64 64, i64 64, i64 0, i32 1088, metadata !33} ; [ DW_TAG_pointer_type ] [line 0, size 64, align 64, offset 0] [from dim3]
!33 = metadata !{i32 786451, null, metadata !"dim3", metadata !29, i32 415, i64 96, i64 32, i32 0, i32 0, null, metadata !34, i32 0, null, null} ; [ DW_TAG_structure_type ] [dim3] [line 415, size 96, align 32, offset 0] [from ]
!34 = metadata !{metadata !35, metadata !36, metadata !37, metadata !38, metadata !41, metadata !59, metadata !62, metadata !67}
!35 = metadata !{i32 786445, metadata !33, metadata !"x", metadata !29, i32 417, i64 32, i64 32, i64 0, i32 0, metadata !20} ; [ DW_TAG_member ] [x] [line 417, size 32, align 32, offset 0] [from unsigned int]
!36 = metadata !{i32 786445, metadata !33, metadata !"y", metadata !29, i32 417, i64 32, i64 32, i64 32, i32 0, metadata !20} ; [ DW_TAG_member ] [y] [line 417, size 32, align 32, offset 32] [from unsigned int]
!37 = metadata !{i32 786445, metadata !33, metadata !"z", metadata !29, i32 417, i64 32, i64 32, i64 64, i32 0, metadata !20} ; [ DW_TAG_member ] [z] [line 417, size 32, align 32, offset 64] [from unsigned int]
!38 = metadata !{i32 786478, i32 0, metadata !33, metadata !"dim3", metadata !"dim3", metadata !"", metadata !29, i32 419, metadata !30, i1 false, i1 false, i32 0, i32 0, null, i32 256, i1 false, null, null, i32 0, metadata !39, i32 419} ; [ DW_TAG_subpr
!39 = metadata !{metadata !40}
!40 = metadata !{i32 786468}                      ; [ DW_TAG_base_type ] [line 0, size 0, align 0, offset 0]
!41 = metadata !{i32 786478, i32 0, metadata !33, metadata !"dim3", metadata !"dim3", metadata !"", metadata !29, i32 420, metadata !42, i1 false, i1 false, i32 0, i32 0, null, i32 256, i1 false, null, null, i32 0, metadata !39, i32 420} ; [ DW_TAG_subpr
!42 = metadata !{i32 786453, i32 0, metadata !"", i32 0, i32 0, i64 0, i64 0, i64 0, i32 0, null, metadata !43, i32 0, i32 0} ; [ DW_TAG_subroutine_type ] [line 0, size 0, align 0, offset 0] [from ]
!43 = metadata !{null, metadata !32, metadata !44}
!44 = metadata !{i32 786454, null, metadata !"uint3", metadata !29, i32 381, i64 0, i64 0, i64 0, i32 0, metadata !45} ; [ DW_TAG_typedef ] [uint3] [line 381, size 0, align 0, offset 0] [from uint3]
!45 = metadata !{i32 786451, null, metadata !"uint3", metadata !29, i32 188, i64 96, i64 32, i32 0, i32 0, null, metadata !46, i32 0, null, null} ; [ DW_TAG_structure_type ] [uint3] [line 188, size 96, align 32, offset 0] [from ]
!46 = metadata !{metadata !47, metadata !48, metadata !49, metadata !50, metadata !54}
!47 = metadata !{i32 786445, metadata !45, metadata !"x", metadata !29, i32 190, i64 32, i64 32, i64 0, i32 0, metadata !20} ; [ DW_TAG_member ] [x] [line 190, size 32, align 32, offset 0] [from unsigned int]
!48 = metadata !{i32 786445, metadata !45, metadata !"y", metadata !29, i32 190, i64 32, i64 32, i64 32, i32 0, metadata !20} ; [ DW_TAG_member ] [y] [line 190, size 32, align 32, offset 32] [from unsigned int]
!49 = metadata !{i32 786445, metadata !45, metadata !"z", metadata !29, i32 190, i64 32, i64 32, i64 64, i32 0, metadata !20} ; [ DW_TAG_member ] [z] [line 190, size 32, align 32, offset 64] [from unsigned int]
!50 = metadata !{i32 786478, i32 0, metadata !45, metadata !"uint3", metadata !"uint3", metadata !"", metadata !29, i32 188, metadata !51, i1 false, i1 false, i32 0, i32 0, null, i32 320, i1 false, null, null, i32 0, metadata !39, i32 188} ; [ DW_TAG_sub
!51 = metadata !{i32 786453, i32 0, metadata !"", i32 0, i32 0, i64 0, i64 0, i64 0, i32 0, null, metadata !52, i32 0, i32 0} ; [ DW_TAG_subroutine_type ] [line 0, size 0, align 0, offset 0] [from ]
!52 = metadata !{null, metadata !53}
!53 = metadata !{i32 786447, i32 0, metadata !"", i32 0, i32 0, i64 64, i64 64, i64 0, i32 1088, metadata !45} ; [ DW_TAG_pointer_type ] [line 0, size 64, align 64, offset 0] [from uint3]
!54 = metadata !{i32 786478, i32 0, metadata !45, metadata !"uint3", metadata !"uint3", metadata !"", metadata !29, i32 188, metadata !55, i1 false, i1 false, i32 0, i32 0, null, i32 320, i1 false, null, null, i32 0, metadata !39, i32 188} ; [ DW_TAG_sub
!55 = metadata !{i32 786453, i32 0, metadata !"", i32 0, i32 0, i64 0, i64 0, i64 0, i32 0, null, metadata !56, i32 0, i32 0} ; [ DW_TAG_subroutine_type ] [line 0, size 0, align 0, offset 0] [from ]
!56 = metadata !{null, metadata !53, metadata !57}
!57 = metadata !{i32 786448, null, null, null, i32 0, i64 0, i64 0, i64 0, i32 0, metadata !58} ; [ DW_TAG_reference_type ] [line 0, size 0, align 0, offset 0] [from ]
!58 = metadata !{i32 786470, null, metadata !"", null, i32 0, i64 0, i64 0, i64 0, i32 0, metadata !45} ; [ DW_TAG_const_type ] [line 0, size 0, align 0, offset 0] [from uint3]
!59 = metadata !{i32 786478, i32 0, metadata !33, metadata !"operator uint3", metadata !"operator uint3", metadata !"_ZN4dim3cv5uint3Ev", metadata !29, i32 421, metadata !60, i1 false, i1 false, i32 0, i32 0, null, i32 256, i1 false, null, null, i32 0, m
!60 = metadata !{i32 786453, i32 0, metadata !"", i32 0, i32 0, i64 0, i64 0, i64 0, i32 0, null, metadata !61, i32 0, i32 0} ; [ DW_TAG_subroutine_type ] [line 0, size 0, align 0, offset 0] [from ]
!61 = metadata !{metadata !44, metadata !32}
!62 = metadata !{i32 786478, i32 0, metadata !33, metadata !"dim3", metadata !"dim3", metadata !"", metadata !29, i32 415, metadata !63, i1 false, i1 false, i32 0, i32 0, null, i32 320, i1 false, null, null, i32 0, metadata !39, i32 415} ; [ DW_TAG_subpr
!63 = metadata !{i32 786453, i32 0, metadata !"", i32 0, i32 0, i64 0, i64 0, i64 0, i32 0, null, metadata !64, i32 0, i32 0} ; [ DW_TAG_subroutine_type ] [line 0, size 0, align 0, offset 0] [from ]
!64 = metadata !{null, metadata !32, metadata !65}
!65 = metadata !{i32 786448, null, null, null, i32 0, i64 0, i64 0, i64 0, i32 0, metadata !66} ; [ DW_TAG_reference_type ] [line 0, size 0, align 0, offset 0] [from ]
!66 = metadata !{i32 786470, null, metadata !"", null, i32 0, i64 0, i64 0, i64 0, i32 0, metadata !33} ; [ DW_TAG_const_type ] [line 0, size 0, align 0, offset 0] [from dim3]
!67 = metadata !{i32 786478, i32 0, metadata !33, metadata !"~dim3", metadata !"~dim3", metadata !"", metadata !29, i32 415, metadata !68, i1 false, i1 false, i32 0, i32 0, null, i32 320, i1 false, null, null, i32 0, metadata !39, i32 415} ; [ DW_TAG_sub
!68 = metadata !{i32 786453, i32 0, metadata !"", i32 0, i32 0, i64 0, i64 0, i64 0, i32 0, null, metadata !69, i32 0, i32 0} ; [ DW_TAG_subroutine_type ] [line 0, size 0, align 0, offset 0] [from ]
!69 = metadata !{null, metadata !32}
!70 = metadata !{i32 786478, i32 0, null, metadata !"dim3", metadata !"dim3", metadata !"_ZN4dim3C2Ejjj", metadata !29, i32 419, metadata !30, i1 false, i1 true, i32 0, i32 0, null, i32 256, i1 false, void (%struct.dim3*, i32, i32, i32)* @_ZN4dim3C2Ejjj,
!71 = metadata !{metadata !72}
!72 = metadata !{metadata !73}
!73 = metadata !{i32 786484, i32 0, metadata !15, metadata !"my_shared", metadata !"my_shared", metadata !"", metadata !16, i32 9, metadata !74, i32 1, i32 1, [1024 x i32]* @_ZZ13device_globalPjS_iE9my_shared} ; [ DW_TAG_variable ] [my_shared] [line 9] [
!74 = metadata !{i32 786433, null, metadata !"", null, i32 0, i64 32768, i64 32, i32 0, i32 0, metadata !20, metadata !75, i32 0, i32 0} ; [ DW_TAG_array_type ] [line 0, size 32768, align 32, offset 0] [from unsigned int]
!75 = metadata !{metadata !76}
!76 = metadata !{i32 786465, i64 0, i64 1023}     ; [ DW_TAG_subrange_type ] [0, 1023]
!77 = metadata !{i32 786449, i32 0, i32 1, metadata !"/home/ibriggs/Gklee/Gklee/runtime/Intrinsic/klee_div_zero_check.c", metadata !"/home/ibriggs/Gklee/Gklee/runtime/Intrinsic", metadata !"clang version 3.2 (tags/RELEASE_32/final)", i1 true, i1 true, me
!78 = metadata !{metadata !79}
!79 = metadata !{metadata !80}
!80 = metadata !{i32 786478, i32 0, metadata !81, metadata !"klee_div_zero_check", metadata !"klee_div_zero_check", metadata !"", metadata !81, i32 12, metadata !82, i1 false, i1 true, i32 0, i32 0, null, i32 256, i1 true, void (i64)* @klee_div_zero_chec
!81 = metadata !{i32 786473, metadata !"klee_div_zero_check.c", metadata !"/home/ibriggs/Gklee/Gklee/runtime/Intrinsic", null} ; [ DW_TAG_file_type ]
!82 = metadata !{i32 786453, i32 0, metadata !"", i32 0, i32 0, i64 0, i64 0, i64 0, i32 0, null, metadata !83, i32 0, i32 0} ; [ DW_TAG_subroutine_type ] [line 0, size 0, align 0, offset 0] [from ]
!83 = metadata !{null, metadata !84}
!84 = metadata !{i32 786468, null, metadata !"long long int", null, i32 0, i64 64, i64 64, i64 0, i32 0, i32 5} ; [ DW_TAG_base_type ] [long long int] [line 0, size 64, align 64, offset 0, enc DW_ATE_signed]
!85 = metadata !{metadata !86}
!86 = metadata !{metadata !87}
!87 = metadata !{i32 786689, metadata !80, metadata !"z", metadata !81, i32 16777228, metadata !84, i32 0, i32 0} ; [ DW_TAG_arg_variable ] [z] [line 12]
!88 = metadata !{i32 786449, i32 0, i32 1, metadata !"/home/ibriggs/Gklee/Gklee/runtime/Intrinsic/memcpy.c", metadata !"/home/ibriggs/Gklee/Gklee/runtime/Intrinsic", metadata !"clang version 3.2 (tags/RELEASE_32/final)", i1 true, i1 true, metadata !"", i
!89 = metadata !{metadata !90}
!90 = metadata !{metadata !91}
!91 = metadata !{i32 786478, i32 0, metadata !92, metadata !"memcpy", metadata !"memcpy", metadata !"", metadata !92, i32 12, metadata !93, i1 false, i1 true, i32 0, i32 0, null, i32 256, i1 true, i8* (i8*, i8*, i64)* @memcpy, null, null, metadata !100, 
!92 = metadata !{i32 786473, metadata !"memcpy.c", metadata !"/home/ibriggs/Gklee/Gklee/runtime/Intrinsic", null} ; [ DW_TAG_file_type ]
!93 = metadata !{i32 786453, i32 0, metadata !"", i32 0, i32 0, i64 0, i64 0, i64 0, i32 0, null, metadata !94, i32 0, i32 0} ; [ DW_TAG_subroutine_type ] [line 0, size 0, align 0, offset 0] [from ]
!94 = metadata !{metadata !95, metadata !95, metadata !96, metadata !98}
!95 = metadata !{i32 786447, null, metadata !"", null, i32 0, i64 64, i64 64, i64 0, i32 0, null} ; [ DW_TAG_pointer_type ] [line 0, size 64, align 64, offset 0] [from ]
!96 = metadata !{i32 786447, null, metadata !"", null, i32 0, i64 64, i64 64, i64 0, i32 0, metadata !97} ; [ DW_TAG_pointer_type ] [line 0, size 64, align 64, offset 0] [from ]
!97 = metadata !{i32 786470, null, metadata !"", null, i32 0, i64 0, i64 0, i64 0, i32 0, null} ; [ DW_TAG_const_type ] [line 0, size 0, align 0, offset 0] [from ]
!98 = metadata !{i32 786454, null, metadata !"size_t", metadata !92, i32 35, i64 0, i64 0, i64 0, i32 0, metadata !99} ; [ DW_TAG_typedef ] [size_t] [line 35, size 0, align 0, offset 0] [from long unsigned int]
!99 = metadata !{i32 786468, null, metadata !"long unsigned int", null, i32 0, i64 64, i64 64, i64 0, i32 0, i32 7} ; [ DW_TAG_base_type ] [long unsigned int] [line 0, size 64, align 64, offset 0, enc DW_ATE_unsigned]
!100 = metadata !{metadata !101}
!101 = metadata !{metadata !102, metadata !103, metadata !104, metadata !105, metadata !107}
!102 = metadata !{i32 786689, metadata !91, metadata !"destaddr", metadata !92, i32 16777228, metadata !95, i32 0, i32 0} ; [ DW_TAG_arg_variable ] [destaddr] [line 12]
!103 = metadata !{i32 786689, metadata !91, metadata !"srcaddr", metadata !92, i32 33554444, metadata !96, i32 0, i32 0} ; [ DW_TAG_arg_variable ] [srcaddr] [line 12]
!104 = metadata !{i32 786689, metadata !91, metadata !"len", metadata !92, i32 50331660, metadata !98, i32 0, i32 0} ; [ DW_TAG_arg_variable ] [len] [line 12]
!105 = metadata !{i32 786688, metadata !106, metadata !"dest", metadata !92, i32 13, metadata !26, i32 0, i32 0} ; [ DW_TAG_auto_variable ] [dest] [line 13]
!106 = metadata !{i32 786443, metadata !91, i32 12, i32 0, metadata !92, i32 0} ; [ DW_TAG_lexical_block ] [/home/ibriggs/Gklee/Gklee/runtime/Intrinsic/memcpy.c]
!107 = metadata !{i32 786688, metadata !106, metadata !"src", metadata !92, i32 14, metadata !108, i32 0, i32 0} ; [ DW_TAG_auto_variable ] [src] [line 14]
!108 = metadata !{i32 786447, null, metadata !"", null, i32 0, i64 64, i64 64, i64 0, i32 0, metadata !109} ; [ DW_TAG_pointer_type ] [line 0, size 64, align 64, offset 0] [from ]
!109 = metadata !{i32 786470, null, metadata !"", null, i32 0, i64 0, i64 0, i64 0, i32 0, metadata !27} ; [ DW_TAG_const_type ] [line 0, size 0, align 0, offset 0] [from char]
!110 = metadata !{i32 786449, i32 0, i32 1, metadata !"/home/ibriggs/Gklee/Gklee/runtime/Intrinsic/memmove.c", metadata !"/home/ibriggs/Gklee/Gklee/runtime/Intrinsic", metadata !"clang version 3.2 (tags/RELEASE_32/final)", i1 true, i1 true, metadata !"",
!111 = metadata !{metadata !112}
!112 = metadata !{metadata !113}
!113 = metadata !{i32 786478, i32 0, metadata !114, metadata !"memmove", metadata !"memmove", metadata !"", metadata !114, i32 12, metadata !115, i1 false, i1 true, i32 0, i32 0, null, i32 256, i1 true, null, null, null, metadata !118, i32 12} ; [ DW_TAG
!114 = metadata !{i32 786473, metadata !"memmove.c", metadata !"/home/ibriggs/Gklee/Gklee/runtime/Intrinsic", null} ; [ DW_TAG_file_type ]
!115 = metadata !{i32 786453, i32 0, metadata !"", i32 0, i32 0, i64 0, i64 0, i64 0, i32 0, null, metadata !116, i32 0, i32 0} ; [ DW_TAG_subroutine_type ] [line 0, size 0, align 0, offset 0] [from ]
!116 = metadata !{metadata !95, metadata !95, metadata !96, metadata !117}
!117 = metadata !{i32 786454, null, metadata !"size_t", metadata !114, i32 35, i64 0, i64 0, i64 0, i32 0, metadata !99} ; [ DW_TAG_typedef ] [size_t] [line 35, size 0, align 0, offset 0] [from long unsigned int]
!118 = metadata !{metadata !119}
!119 = metadata !{metadata !120, metadata !121, metadata !122, metadata !123, metadata !125}
!120 = metadata !{i32 786689, metadata !113, metadata !"dst", metadata !114, i32 16777228, metadata !95, i32 0, i32 0} ; [ DW_TAG_arg_variable ] [dst] [line 12]
!121 = metadata !{i32 786689, metadata !113, metadata !"src", metadata !114, i32 33554444, metadata !96, i32 0, i32 0} ; [ DW_TAG_arg_variable ] [src] [line 12]
!122 = metadata !{i32 786689, metadata !113, metadata !"count", metadata !114, i32 50331660, metadata !117, i32 0, i32 0} ; [ DW_TAG_arg_variable ] [count] [line 12]
!123 = metadata !{i32 786688, metadata !124, metadata !"a", metadata !114, i32 14, metadata !26, i32 0, i32 0} ; [ DW_TAG_auto_variable ] [a] [line 14]
!124 = metadata !{i32 786443, metadata !113, i32 12, i32 0, metadata !114, i32 0} ; [ DW_TAG_lexical_block ] [/home/ibriggs/Gklee/Gklee/runtime/Intrinsic/memmove.c]
!125 = metadata !{i32 786688, metadata !124, metadata !"b", metadata !114, i32 15, metadata !108, i32 0, i32 0} ; [ DW_TAG_auto_variable ] [b] [line 15]
!126 = metadata !{i32 786449, i32 0, i32 1, metadata !"/home/ibriggs/Gklee/Gklee/runtime/Intrinsic/memset.c", metadata !"/home/ibriggs/Gklee/Gklee/runtime/Intrinsic", metadata !"clang version 3.2 (tags/RELEASE_32/final)", i1 true, i1 true, metadata !"", 
!127 = metadata !{metadata !128}
!128 = metadata !{metadata !129}
!129 = metadata !{i32 786478, i32 0, metadata !130, metadata !"memset", metadata !"memset", metadata !"", metadata !130, i32 12, metadata !131, i1 false, i1 true, i32 0, i32 0, null, i32 256, i1 true, i8* (i8*, i32, i64)* @memset, null, null, metadata !1
!130 = metadata !{i32 786473, metadata !"memset.c", metadata !"/home/ibriggs/Gklee/Gklee/runtime/Intrinsic", null} ; [ DW_TAG_file_type ]
!131 = metadata !{i32 786453, i32 0, metadata !"", i32 0, i32 0, i64 0, i64 0, i64 0, i32 0, null, metadata !132, i32 0, i32 0} ; [ DW_TAG_subroutine_type ] [line 0, size 0, align 0, offset 0] [from ]
!132 = metadata !{metadata !95, metadata !95, metadata !21, metadata !133}
!133 = metadata !{i32 786454, null, metadata !"size_t", metadata !130, i32 35, i64 0, i64 0, i64 0, i32 0, metadata !99} ; [ DW_TAG_typedef ] [size_t] [line 35, size 0, align 0, offset 0] [from long unsigned int]
!134 = metadata !{metadata !135}
!135 = metadata !{metadata !136, metadata !137, metadata !138, metadata !139}
!136 = metadata !{i32 786689, metadata !129, metadata !"dst", metadata !130, i32 16777228, metadata !95, i32 0, i32 0} ; [ DW_TAG_arg_variable ] [dst] [line 12]
!137 = metadata !{i32 786689, metadata !129, metadata !"s", metadata !130, i32 33554444, metadata !21, i32 0, i32 0} ; [ DW_TAG_arg_variable ] [s] [line 12]
!138 = metadata !{i32 786689, metadata !129, metadata !"count", metadata !130, i32 50331660, metadata !133, i32 0, i32 0} ; [ DW_TAG_arg_variable ] [count] [line 12]
!139 = metadata !{i32 786688, metadata !140, metadata !"a", metadata !130, i32 13, metadata !141, i32 0, i32 0} ; [ DW_TAG_auto_variable ] [a] [line 13]
!140 = metadata !{i32 786443, metadata !129, i32 12, i32 0, metadata !130, i32 0} ; [ DW_TAG_lexical_block ] [/home/ibriggs/Gklee/Gklee/runtime/Intrinsic/memset.c]
!141 = metadata !{i32 786447, null, metadata !"", null, i32 0, i64 64, i64 64, i64 0, i32 0, metadata !142} ; [ DW_TAG_pointer_type ] [line 0, size 64, align 64, offset 0] [from ]
!142 = metadata !{i32 786485, null, metadata !"", null, i32 0, i64 0, i64 0, i64 0, i32 0, metadata !27} ; [ DW_TAG_volatile_type ] [line 0, size 0, align 0, offset 0] [from char]
!143 = metadata !{i32 786449, i32 0, i32 4, metadata !"/home/ibriggs/Gklee/Gklee/runtime/CudaRuntime/cudaMemManage.cpp", metadata !"/home/ibriggs/Gklee/Gklee/runtime/CudaRuntime", metadata !"clang version 3.2 (tags/RELEASE_32/final)", i1 true, i1 true, m
!144 = metadata !{metadata !145}
!145 = metadata !{metadata !146, metadata !221, metadata !227}
!146 = metadata !{i32 786436, null, metadata !"cudaError", metadata !147, i32 124, i64 32, i64 32, i32 0, i32 0, null, metadata !148, i32 0, i32 0} ; [ DW_TAG_enumeration_type ] [cudaError] [line 124, size 32, align 32, offset 0] [from ]
!147 = metadata !{i32 786473, metadata !"/home/ibriggs/Gklee/Gklee/include/cuda/driver_types.h", metadata !"/home/ibriggs/Gklee/Gklee/runtime/CudaRuntime", null} ; [ DW_TAG_file_type ]
!148 = metadata !{metadata !149, metadata !150, metadata !151, metadata !152, metadata !153, metadata !154, metadata !155, metadata !156, metadata !157, metadata !158, metadata !159, metadata !160, metadata !161, metadata !162, metadata !163, metadata !1
!149 = metadata !{i32 786472, metadata !"cudaSuccess", i64 0} ; [ DW_TAG_enumerator ] [cudaSuccess :: 0]
!150 = metadata !{i32 786472, metadata !"cudaErrorMissingConfiguration", i64 1} ; [ DW_TAG_enumerator ] [cudaErrorMissingConfiguration :: 1]
!151 = metadata !{i32 786472, metadata !"cudaErrorMemoryAllocation", i64 2} ; [ DW_TAG_enumerator ] [cudaErrorMemoryAllocation :: 2]
!152 = metadata !{i32 786472, metadata !"cudaErrorInitializationError", i64 3} ; [ DW_TAG_enumerator ] [cudaErrorInitializationError :: 3]
!153 = metadata !{i32 786472, metadata !"cudaErrorLaunchFailure", i64 4} ; [ DW_TAG_enumerator ] [cudaErrorLaunchFailure :: 4]
!154 = metadata !{i32 786472, metadata !"cudaErrorPriorLaunchFailure", i64 5} ; [ DW_TAG_enumerator ] [cudaErrorPriorLaunchFailure :: 5]
!155 = metadata !{i32 786472, metadata !"cudaErrorLaunchTimeout", i64 6} ; [ DW_TAG_enumerator ] [cudaErrorLaunchTimeout :: 6]
!156 = metadata !{i32 786472, metadata !"cudaErrorLaunchOutOfResources", i64 7} ; [ DW_TAG_enumerator ] [cudaErrorLaunchOutOfResources :: 7]
!157 = metadata !{i32 786472, metadata !"cudaErrorInvalidDeviceFunction", i64 8} ; [ DW_TAG_enumerator ] [cudaErrorInvalidDeviceFunction :: 8]
!158 = metadata !{i32 786472, metadata !"cudaErrorInvalidConfiguration", i64 9} ; [ DW_TAG_enumerator ] [cudaErrorInvalidConfiguration :: 9]
!159 = metadata !{i32 786472, metadata !"cudaErrorInvalidDevice", i64 10} ; [ DW_TAG_enumerator ] [cudaErrorInvalidDevice :: 10]
!160 = metadata !{i32 786472, metadata !"cudaErrorInvalidValue", i64 11} ; [ DW_TAG_enumerator ] [cudaErrorInvalidValue :: 11]
!161 = metadata !{i32 786472, metadata !"cudaErrorInvalidPitchValue", i64 12} ; [ DW_TAG_enumerator ] [cudaErrorInvalidPitchValue :: 12]
!162 = metadata !{i32 786472, metadata !"cudaErrorInvalidSymbol", i64 13} ; [ DW_TAG_enumerator ] [cudaErrorInvalidSymbol :: 13]
!163 = metadata !{i32 786472, metadata !"cudaErrorMapBufferObjectFailed", i64 14} ; [ DW_TAG_enumerator ] [cudaErrorMapBufferObjectFailed :: 14]
!164 = metadata !{i32 786472, metadata !"cudaErrorUnmapBufferObjectFailed", i64 15} ; [ DW_TAG_enumerator ] [cudaErrorUnmapBufferObjectFailed :: 15]
!165 = metadata !{i32 786472, metadata !"cudaErrorInvalidHostPointer", i64 16} ; [ DW_TAG_enumerator ] [cudaErrorInvalidHostPointer :: 16]
!166 = metadata !{i32 786472, metadata !"cudaErrorInvalidDevicePointer", i64 17} ; [ DW_TAG_enumerator ] [cudaErrorInvalidDevicePointer :: 17]
!167 = metadata !{i32 786472, metadata !"cudaErrorInvalidTexture", i64 18} ; [ DW_TAG_enumerator ] [cudaErrorInvalidTexture :: 18]
!168 = metadata !{i32 786472, metadata !"cudaErrorInvalidTextureBinding", i64 19} ; [ DW_TAG_enumerator ] [cudaErrorInvalidTextureBinding :: 19]
!169 = metadata !{i32 786472, metadata !"cudaErrorInvalidChannelDescriptor", i64 20} ; [ DW_TAG_enumerator ] [cudaErrorInvalidChannelDescriptor :: 20]
!170 = metadata !{i32 786472, metadata !"cudaErrorInvalidMemcpyDirection", i64 21} ; [ DW_TAG_enumerator ] [cudaErrorInvalidMemcpyDirection :: 21]
!171 = metadata !{i32 786472, metadata !"cudaErrorAddressOfConstant", i64 22} ; [ DW_TAG_enumerator ] [cudaErrorAddressOfConstant :: 22]
!172 = metadata !{i32 786472, metadata !"cudaErrorTextureFetchFailed", i64 23} ; [ DW_TAG_enumerator ] [cudaErrorTextureFetchFailed :: 23]
!173 = metadata !{i32 786472, metadata !"cudaErrorTextureNotBound", i64 24} ; [ DW_TAG_enumerator ] [cudaErrorTextureNotBound :: 24]
!174 = metadata !{i32 786472, metadata !"cudaErrorSynchronizationError", i64 25} ; [ DW_TAG_enumerator ] [cudaErrorSynchronizationError :: 25]
!175 = metadata !{i32 786472, metadata !"cudaErrorInvalidFilterSetting", i64 26} ; [ DW_TAG_enumerator ] [cudaErrorInvalidFilterSetting :: 26]
!176 = metadata !{i32 786472, metadata !"cudaErrorInvalidNormSetting", i64 27} ; [ DW_TAG_enumerator ] [cudaErrorInvalidNormSetting :: 27]
!177 = metadata !{i32 786472, metadata !"cudaErrorMixedDeviceExecution", i64 28} ; [ DW_TAG_enumerator ] [cudaErrorMixedDeviceExecution :: 28]
!178 = metadata !{i32 786472, metadata !"cudaErrorCudartUnloading", i64 29} ; [ DW_TAG_enumerator ] [cudaErrorCudartUnloading :: 29]
!179 = metadata !{i32 786472, metadata !"cudaErrorUnknown", i64 30} ; [ DW_TAG_enumerator ] [cudaErrorUnknown :: 30]
!180 = metadata !{i32 786472, metadata !"cudaErrorNotYetImplemented", i64 31} ; [ DW_TAG_enumerator ] [cudaErrorNotYetImplemented :: 31]
!181 = metadata !{i32 786472, metadata !"cudaErrorMemoryValueTooLarge", i64 32} ; [ DW_TAG_enumerator ] [cudaErrorMemoryValueTooLarge :: 32]
!182 = metadata !{i32 786472, metadata !"cudaErrorInvalidResourceHandle", i64 33} ; [ DW_TAG_enumerator ] [cudaErrorInvalidResourceHandle :: 33]
!183 = metadata !{i32 786472, metadata !"cudaErrorNotReady", i64 34} ; [ DW_TAG_enumerator ] [cudaErrorNotReady :: 34]
!184 = metadata !{i32 786472, metadata !"cudaErrorInsufficientDriver", i64 35} ; [ DW_TAG_enumerator ] [cudaErrorInsufficientDriver :: 35]
!185 = metadata !{i32 786472, metadata !"cudaErrorSetOnActiveProcess", i64 36} ; [ DW_TAG_enumerator ] [cudaErrorSetOnActiveProcess :: 36]
!186 = metadata !{i32 786472, metadata !"cudaErrorInvalidSurface", i64 37} ; [ DW_TAG_enumerator ] [cudaErrorInvalidSurface :: 37]
!187 = metadata !{i32 786472, metadata !"cudaErrorNoDevice", i64 38} ; [ DW_TAG_enumerator ] [cudaErrorNoDevice :: 38]
!188 = metadata !{i32 786472, metadata !"cudaErrorECCUncorrectable", i64 39} ; [ DW_TAG_enumerator ] [cudaErrorECCUncorrectable :: 39]
!189 = metadata !{i32 786472, metadata !"cudaErrorSharedObjectSymbolNotFound", i64 40} ; [ DW_TAG_enumerator ] [cudaErrorSharedObjectSymbolNotFound :: 40]
!190 = metadata !{i32 786472, metadata !"cudaErrorSharedObjectInitFailed", i64 41} ; [ DW_TAG_enumerator ] [cudaErrorSharedObjectInitFailed :: 41]
!191 = metadata !{i32 786472, metadata !"cudaErrorUnsupportedLimit", i64 42} ; [ DW_TAG_enumerator ] [cudaErrorUnsupportedLimit :: 42]
!192 = metadata !{i32 786472, metadata !"cudaErrorDuplicateVariableName", i64 43} ; [ DW_TAG_enumerator ] [cudaErrorDuplicateVariableName :: 43]
!193 = metadata !{i32 786472, metadata !"cudaErrorDuplicateTextureName", i64 44} ; [ DW_TAG_enumerator ] [cudaErrorDuplicateTextureName :: 44]
!194 = metadata !{i32 786472, metadata !"cudaErrorDuplicateSurfaceName", i64 45} ; [ DW_TAG_enumerator ] [cudaErrorDuplicateSurfaceName :: 45]
!195 = metadata !{i32 786472, metadata !"cudaErrorDevicesUnavailable", i64 46} ; [ DW_TAG_enumerator ] [cudaErrorDevicesUnavailable :: 46]
!196 = metadata !{i32 786472, metadata !"cudaErrorInvalidKernelImage", i64 47} ; [ DW_TAG_enumerator ] [cudaErrorInvalidKernelImage :: 47]
!197 = metadata !{i32 786472, metadata !"cudaErrorNoKernelImageForDevice", i64 48} ; [ DW_TAG_enumerator ] [cudaErrorNoKernelImageForDevice :: 48]
!198 = metadata !{i32 786472, metadata !"cudaErrorIncompatibleDriverContext", i64 49} ; [ DW_TAG_enumerator ] [cudaErrorIncompatibleDriverContext :: 49]
!199 = metadata !{i32 786472, metadata !"cudaErrorPeerAccessAlreadyEnabled", i64 50} ; [ DW_TAG_enumerator ] [cudaErrorPeerAccessAlreadyEnabled :: 50]
!200 = metadata !{i32 786472, metadata !"cudaErrorPeerAccessNotEnabled", i64 51} ; [ DW_TAG_enumerator ] [cudaErrorPeerAccessNotEnabled :: 51]
!201 = metadata !{i32 786472, metadata !"cudaErrorDeviceAlreadyInUse", i64 54} ; [ DW_TAG_enumerator ] [cudaErrorDeviceAlreadyInUse :: 54]
!202 = metadata !{i32 786472, metadata !"cudaErrorProfilerDisabled", i64 55} ; [ DW_TAG_enumerator ] [cudaErrorProfilerDisabled :: 55]
!203 = metadata !{i32 786472, metadata !"cudaErrorProfilerNotInitialized", i64 56} ; [ DW_TAG_enumerator ] [cudaErrorProfilerNotInitialized :: 56]
!204 = metadata !{i32 786472, metadata !"cudaErrorProfilerAlreadyStarted", i64 57} ; [ DW_TAG_enumerator ] [cudaErrorProfilerAlreadyStarted :: 57]
!205 = metadata !{i32 786472, metadata !"cudaErrorProfilerAlreadyStopped", i64 58} ; [ DW_TAG_enumerator ] [cudaErrorProfilerAlreadyStopped :: 58]
!206 = metadata !{i32 786472, metadata !"cudaErrorAssert", i64 59} ; [ DW_TAG_enumerator ] [cudaErrorAssert :: 59]
!207 = metadata !{i32 786472, metadata !"cudaErrorTooManyPeers", i64 60} ; [ DW_TAG_enumerator ] [cudaErrorTooManyPeers :: 60]
!208 = metadata !{i32 786472, metadata !"cudaErrorHostMemoryAlreadyRegistered", i64 61} ; [ DW_TAG_enumerator ] [cudaErrorHostMemoryAlreadyRegistered :: 61]
!209 = metadata !{i32 786472, metadata !"cudaErrorHostMemoryNotRegistered", i64 62} ; [ DW_TAG_enumerator ] [cudaErrorHostMemoryNotRegistered :: 62]
!210 = metadata !{i32 786472, metadata !"cudaErrorOperatingSystem", i64 63} ; [ DW_TAG_enumerator ] [cudaErrorOperatingSystem :: 63]
!211 = metadata !{i32 786472, metadata !"cudaErrorPeerAccessUnsupported", i64 64} ; [ DW_TAG_enumerator ] [cudaErrorPeerAccessUnsupported :: 64]
!212 = metadata !{i32 786472, metadata !"cudaErrorLaunchMaxDepthExceeded", i64 65} ; [ DW_TAG_enumerator ] [cudaErrorLaunchMaxDepthExceeded :: 65]
!213 = metadata !{i32 786472, metadata !"cudaErrorLaunchFileScopedTex", i64 66} ; [ DW_TAG_enumerator ] [cudaErrorLaunchFileScopedTex :: 66]
!214 = metadata !{i32 786472, metadata !"cudaErrorLaunchFileScopedSurf", i64 67} ; [ DW_TAG_enumerator ] [cudaErrorLaunchFileScopedSurf :: 67]
!215 = metadata !{i32 786472, metadata !"cudaErrorSyncDepthExceeded", i64 68} ; [ DW_TAG_enumerator ] [cudaErrorSyncDepthExceeded :: 68]
!216 = metadata !{i32 786472, metadata !"cudaErrorLaunchPendingCountExceeded", i64 69} ; [ DW_TAG_enumerator ] [cudaErrorLaunchPendingCountExceeded :: 69]
!217 = metadata !{i32 786472, metadata !"cudaErrorNotPermitted", i64 70} ; [ DW_TAG_enumerator ] [cudaErrorNotPermitted :: 70]
!218 = metadata !{i32 786472, metadata !"cudaErrorNotSupported", i64 71} ; [ DW_TAG_enumerator ] [cudaErrorNotSupported :: 71]
!219 = metadata !{i32 786472, metadata !"cudaErrorStartupFailure", i64 127} ; [ DW_TAG_enumerator ] [cudaErrorStartupFailure :: 127]
!220 = metadata !{i32 786472, metadata !"cudaErrorApiFailureBase", i64 10000} ; [ DW_TAG_enumerator ] [cudaErrorApiFailureBase :: 10000]
!221 = metadata !{i32 786436, null, metadata !"cudaChannelFormatKind", metadata !147, i32 649, i64 32, i64 32, i32 0, i32 0, null, metadata !222, i32 0, i32 0} ; [ DW_TAG_enumeration_type ] [cudaChannelFormatKind] [line 649, size 32, align 32, offset 0] 
!222 = metadata !{metadata !223, metadata !224, metadata !225, metadata !226}
!223 = metadata !{i32 786472, metadata !"cudaChannelFormatKindSigned", i64 0} ; [ DW_TAG_enumerator ] [cudaChannelFormatKindSigned :: 0]
!224 = metadata !{i32 786472, metadata !"cudaChannelFormatKindUnsigned", i64 1} ; [ DW_TAG_enumerator ] [cudaChannelFormatKindUnsigned :: 1]
!225 = metadata !{i32 786472, metadata !"cudaChannelFormatKindFloat", i64 2} ; [ DW_TAG_enumerator ] [cudaChannelFormatKindFloat :: 2]
!226 = metadata !{i32 786472, metadata !"cudaChannelFormatKindNone", i64 3} ; [ DW_TAG_enumerator ] [cudaChannelFormatKindNone :: 3]
!227 = metadata !{i32 786436, null, metadata !"cudaMemcpyKind", metadata !147, i32 705, i64 32, i64 32, i32 0, i32 0, null, metadata !5, i32 0, i32 0} ; [ DW_TAG_enumeration_type ] [cudaMemcpyKind] [line 705, size 32, align 32, offset 0] [from ]
!228 = metadata !{metadata !229}
!229 = metadata !{metadata !230, metadata !258, metadata !264, metadata !270, metadata !274, metadata !282, metadata !290, metadata !298, metadata !306, metadata !313, metadata !321, metadata !325, metadata !332, metadata !346, metadata !356, metadata !3
!230 = metadata !{i32 786478, i32 0, metadata !231, metadata !"cudaArrayGetInfo", metadata !"cudaArrayGetInfo", metadata !"", metadata !231, i32 24, metadata !232, i1 false, i1 true, i32 0, i32 0, null, i32 256, i1 true, i32 (%struct.cudaChannelFormatDes
!231 = metadata !{i32 786473, metadata !"cudaMemManage.cpp", metadata !"/home/ibriggs/Gklee/Gklee/runtime/CudaRuntime", null} ; [ DW_TAG_file_type ]
!232 = metadata !{i32 786453, i32 0, metadata !"", i32 0, i32 0, i64 0, i64 0, i64 0, i32 0, null, metadata !233, i32 0, i32 0} ; [ DW_TAG_subroutine_type ] [line 0, size 0, align 0, offset 0] [from ]
!233 = metadata !{metadata !234, metadata !235, metadata !243, metadata !19, metadata !250}
!234 = metadata !{i32 786454, null, metadata !"cudaError_t", metadata !231, i32 1293, i64 0, i64 0, i64 0, i32 0, metadata !146} ; [ DW_TAG_typedef ] [cudaError_t] [line 1293, size 0, align 0, offset 0] [from cudaError]
!235 = metadata !{i32 786447, null, metadata !"", null, i32 0, i64 64, i64 64, i64 0, i32 0, metadata !236} ; [ DW_TAG_pointer_type ] [line 0, size 64, align 64, offset 0] [from cudaChannelFormatDesc]
!236 = metadata !{i32 786451, null, metadata !"cudaChannelFormatDesc", metadata !147, i32 660, i64 160, i64 32, i32 0, i32 0, null, metadata !237, i32 0, null, null} ; [ DW_TAG_structure_type ] [cudaChannelFormatDesc] [line 660, size 160, align 32, offse
!237 = metadata !{metadata !238, metadata !239, metadata !240, metadata !241, metadata !242}
!238 = metadata !{i32 786445, metadata !236, metadata !"x", metadata !147, i32 662, i64 32, i64 32, i64 0, i32 0, metadata !21} ; [ DW_TAG_member ] [x] [line 662, size 32, align 32, offset 0] [from int]
!239 = metadata !{i32 786445, metadata !236, metadata !"y", metadata !147, i32 663, i64 32, i64 32, i64 32, i32 0, metadata !21} ; [ DW_TAG_member ] [y] [line 663, size 32, align 32, offset 32] [from int]
!240 = metadata !{i32 786445, metadata !236, metadata !"z", metadata !147, i32 664, i64 32, i64 32, i64 64, i32 0, metadata !21} ; [ DW_TAG_member ] [z] [line 664, size 32, align 32, offset 64] [from int]
!241 = metadata !{i32 786445, metadata !236, metadata !"w", metadata !147, i32 665, i64 32, i64 32, i64 96, i32 0, metadata !21} ; [ DW_TAG_member ] [w] [line 665, size 32, align 32, offset 96] [from int]
!242 = metadata !{i32 786445, metadata !236, metadata !"f", metadata !147, i32 666, i64 32, i64 32, i64 128, i32 0, metadata !221} ; [ DW_TAG_member ] [f] [line 666, size 32, align 32, offset 128] [from cudaChannelFormatKind]
!243 = metadata !{i32 786447, null, metadata !"", null, i32 0, i64 64, i64 64, i64 0, i32 0, metadata !244} ; [ DW_TAG_pointer_type ] [line 0, size 64, align 64, offset 0] [from cudaExtent]
!244 = metadata !{i32 786451, null, metadata !"cudaExtent", metadata !147, i32 730, i64 192, i64 64, i32 0, i32 0, null, metadata !245, i32 0, null, null} ; [ DW_TAG_structure_type ] [cudaExtent] [line 730, size 192, align 64, offset 0] [from ]
!245 = metadata !{metadata !246, metadata !248, metadata !249}
!246 = metadata !{i32 786445, metadata !244, metadata !"width", metadata !147, i32 732, i64 64, i64 64, i64 0, i32 0, metadata !247} ; [ DW_TAG_member ] [width] [line 732, size 64, align 64, offset 0] [from size_t]
!247 = metadata !{i32 786454, null, metadata !"size_t", metadata !147, i32 35, i64 0, i64 0, i64 0, i32 0, metadata !99} ; [ DW_TAG_typedef ] [size_t] [line 35, size 0, align 0, offset 0] [from long unsigned int]
!248 = metadata !{i32 786445, metadata !244, metadata !"height", metadata !147, i32 733, i64 64, i64 64, i64 64, i32 0, metadata !247} ; [ DW_TAG_member ] [height] [line 733, size 64, align 64, offset 64] [from size_t]
!249 = metadata !{i32 786445, metadata !244, metadata !"depth", metadata !147, i32 734, i64 64, i64 64, i64 128, i32 0, metadata !247} ; [ DW_TAG_member ] [depth] [line 734, size 64, align 64, offset 128] [from size_t]
!250 = metadata !{i32 786447, null, metadata !"", null, i32 0, i64 64, i64 64, i64 0, i32 0, metadata !251} ; [ DW_TAG_pointer_type ] [line 0, size 64, align 64, offset 0] [from cudaArray]
!251 = metadata !{i32 786451, null, metadata !"cudaArray", metadata !147, i32 672, i64 0, i64 0, i32 0, i32 4, null, null, i32 0} ; [ DW_TAG_structure_type ] [cudaArray] [line 672, size 0, align 0, offset 0] [fwd] [from ]
!252 = metadata !{metadata !253}
!253 = metadata !{metadata !254, metadata !255, metadata !256, metadata !257}
!254 = metadata !{i32 786689, metadata !230, metadata !"desc", metadata !231, i32 16777240, metadata !235, i32 0, i32 0} ; [ DW_TAG_arg_variable ] [desc] [line 24]
!255 = metadata !{i32 786689, metadata !230, metadata !"extent", metadata !231, i32 33554456, metadata !243, i32 0, i32 0} ; [ DW_TAG_arg_variable ] [extent] [line 24]
!256 = metadata !{i32 786689, metadata !230, metadata !"flags", metadata !231, i32 50331673, metadata !19, i32 0, i32 0} ; [ DW_TAG_arg_variable ] [flags] [line 25]
!257 = metadata !{i32 786689, metadata !230, metadata !"array", metadata !231, i32 67108889, metadata !250, i32 0, i32 0} ; [ DW_TAG_arg_variable ] [array] [line 25]
!258 = metadata !{i32 786478, i32 0, metadata !231, metadata !"cudaFree", metadata !"cudaFree", metadata !"", metadata !231, i32 29, metadata !259, i1 false, i1 true, i32 0, i32 0, null, i32 256, i1 true, i32 (i8*)* @cudaFree, null, null, metadata !261, 
!259 = metadata !{i32 786453, i32 0, metadata !"", i32 0, i32 0, i64 0, i64 0, i64 0, i32 0, null, metadata !260, i32 0, i32 0} ; [ DW_TAG_subroutine_type ] [line 0, size 0, align 0, offset 0] [from ]
!260 = metadata !{metadata !234, metadata !95}
!261 = metadata !{metadata !262}
!262 = metadata !{metadata !263}
!263 = metadata !{i32 786689, metadata !258, metadata !"devPtr", metadata !231, i32 16777245, metadata !95, i32 0, i32 0} ; [ DW_TAG_arg_variable ] [devPtr] [line 29]
!264 = metadata !{i32 786478, i32 0, metadata !231, metadata !"cudaFreeArray", metadata !"cudaFreeArray", metadata !"", metadata !231, i32 34, metadata !265, i1 false, i1 true, i32 0, i32 0, null, i32 256, i1 true, i32 (%struct.cudaArray*)* @cudaFreeArra
!265 = metadata !{i32 786453, i32 0, metadata !"", i32 0, i32 0, i64 0, i64 0, i64 0, i32 0, null, metadata !266, i32 0, i32 0} ; [ DW_TAG_subroutine_type ] [line 0, size 0, align 0, offset 0] [from ]
!266 = metadata !{metadata !234, metadata !250}
!267 = metadata !{metadata !268}
!268 = metadata !{metadata !269}
!269 = metadata !{i32 786689, metadata !264, metadata !"array", metadata !231, i32 16777250, metadata !250, i32 0, i32 0} ; [ DW_TAG_arg_variable ] [array] [line 34]
!270 = metadata !{i32 786478, i32 0, metadata !231, metadata !"cudaFreeHost", metadata !"cudaFreeHost", metadata !"", metadata !231, i32 39, metadata !259, i1 false, i1 true, i32 0, i32 0, null, i32 256, i1 true, i32 (i8*)* @cudaFreeHost, null, null, met
!271 = metadata !{metadata !272}
!272 = metadata !{metadata !273}
!273 = metadata !{i32 786689, metadata !270, metadata !"ptr", metadata !231, i32 16777255, metadata !95, i32 0, i32 0} ; [ DW_TAG_arg_variable ] [ptr] [line 39]
!274 = metadata !{i32 786478, i32 0, metadata !231, metadata !"cudaGetSymbolAddress", metadata !"cudaGetSymbolAddress", metadata !"", metadata !231, i32 44, metadata !275, i1 false, i1 true, i32 0, i32 0, null, i32 256, i1 true, i32 (i8**, i8*)* @cudaGet
!275 = metadata !{i32 786453, i32 0, metadata !"", i32 0, i32 0, i64 0, i64 0, i64 0, i32 0, null, metadata !276, i32 0, i32 0} ; [ DW_TAG_subroutine_type ] [line 0, size 0, align 0, offset 0] [from ]
!276 = metadata !{metadata !234, metadata !277, metadata !108}
!277 = metadata !{i32 786447, null, metadata !"", null, i32 0, i64 64, i64 64, i64 0, i32 0, metadata !95} ; [ DW_TAG_pointer_type ] [line 0, size 64, align 64, offset 0] [from ]
!278 = metadata !{metadata !279}
!279 = metadata !{metadata !280, metadata !281}
!280 = metadata !{i32 786689, metadata !274, metadata !"devPtr", metadata !231, i32 16777260, metadata !277, i32 0, i32 0} ; [ DW_TAG_arg_variable ] [devPtr] [line 44]
!281 = metadata !{i32 786689, metadata !274, metadata !"symbol", metadata !231, i32 33554476, metadata !108, i32 0, i32 0} ; [ DW_TAG_arg_variable ] [symbol] [line 44]
!282 = metadata !{i32 786478, i32 0, metadata !231, metadata !"cudaGetSymbolSize", metadata !"cudaGetSymbolSize", metadata !"", metadata !231, i32 48, metadata !283, i1 false, i1 true, i32 0, i32 0, null, i32 256, i1 true, i32 (i64*, i8*)* @cudaGetSymbol
!283 = metadata !{i32 786453, i32 0, metadata !"", i32 0, i32 0, i64 0, i64 0, i64 0, i32 0, null, metadata !284, i32 0, i32 0} ; [ DW_TAG_subroutine_type ] [line 0, size 0, align 0, offset 0] [from ]
!284 = metadata !{metadata !234, metadata !285, metadata !108}
!285 = metadata !{i32 786447, null, metadata !"", null, i32 0, i64 64, i64 64, i64 0, i32 0, metadata !247} ; [ DW_TAG_pointer_type ] [line 0, size 64, align 64, offset 0] [from size_t]
!286 = metadata !{metadata !287}
!287 = metadata !{metadata !288, metadata !289}
!288 = metadata !{i32 786689, metadata !282, metadata !"size", metadata !231, i32 16777264, metadata !285, i32 0, i32 0} ; [ DW_TAG_arg_variable ] [size] [line 48]
!289 = metadata !{i32 786689, metadata !282, metadata !"symbol", metadata !231, i32 33554480, metadata !108, i32 0, i32 0} ; [ DW_TAG_arg_variable ] [symbol] [line 48]
!290 = metadata !{i32 786478, i32 0, metadata !231, metadata !"cudaHostAlloc", metadata !"cudaHostAlloc", metadata !"", metadata !231, i32 52, metadata !291, i1 false, i1 true, i32 0, i32 0, null, i32 256, i1 true, i32 (i8**, i64, i32)* @cudaHostAlloc, n
!291 = metadata !{i32 786453, i32 0, metadata !"", i32 0, i32 0, i64 0, i64 0, i64 0, i32 0, null, metadata !292, i32 0, i32 0} ; [ DW_TAG_subroutine_type ] [line 0, size 0, align 0, offset 0] [from ]
!292 = metadata !{metadata !234, metadata !277, metadata !247, metadata !20}
!293 = metadata !{metadata !294}
!294 = metadata !{metadata !295, metadata !296, metadata !297}
!295 = metadata !{i32 786689, metadata !290, metadata !"pHost", metadata !231, i32 16777268, metadata !277, i32 0, i32 0} ; [ DW_TAG_arg_variable ] [pHost] [line 52]
!296 = metadata !{i32 786689, metadata !290, metadata !"size", metadata !231, i32 33554484, metadata !247, i32 0, i32 0} ; [ DW_TAG_arg_variable ] [size] [line 52]
!297 = metadata !{i32 786689, metadata !290, metadata !"flags", metadata !231, i32 50331700, metadata !20, i32 0, i32 0} ; [ DW_TAG_arg_variable ] [flags] [line 52]
!298 = metadata !{i32 786478, i32 0, metadata !231, metadata !"cudaHostGetDevicePointer", metadata !"cudaHostGetDevicePointer", metadata !"", metadata !231, i32 56, metadata !299, i1 false, i1 true, i32 0, i32 0, null, i32 256, i1 true, i32 (i8**, i8*, i
!299 = metadata !{i32 786453, i32 0, metadata !"", i32 0, i32 0, i64 0, i64 0, i64 0, i32 0, null, metadata !300, i32 0, i32 0} ; [ DW_TAG_subroutine_type ] [line 0, size 0, align 0, offset 0] [from ]
!300 = metadata !{metadata !234, metadata !277, metadata !95, metadata !20}
!301 = metadata !{metadata !302}
!302 = metadata !{metadata !303, metadata !304, metadata !305}
!303 = metadata !{i32 786689, metadata !298, metadata !"pDevice", metadata !231, i32 16777272, metadata !277, i32 0, i32 0} ; [ DW_TAG_arg_variable ] [pDevice] [line 56]
!304 = metadata !{i32 786689, metadata !298, metadata !"pHost", metadata !231, i32 33554488, metadata !95, i32 0, i32 0} ; [ DW_TAG_arg_variable ] [pHost] [line 56]
!305 = metadata !{i32 786689, metadata !298, metadata !"flags", metadata !231, i32 50331704, metadata !20, i32 0, i32 0} ; [ DW_TAG_arg_variable ] [flags] [line 56]
!306 = metadata !{i32 786478, i32 0, metadata !231, metadata !"cudaHostGetFlags", metadata !"cudaHostGetFlags", metadata !"", metadata !231, i32 60, metadata !307, i1 false, i1 true, i32 0, i32 0, null, i32 256, i1 true, i32 (i32*, i8*)* @cudaHostGetFlag
!307 = metadata !{i32 786453, i32 0, metadata !"", i32 0, i32 0, i64 0, i64 0, i64 0, i32 0, null, metadata !308, i32 0, i32 0} ; [ DW_TAG_subroutine_type ] [line 0, size 0, align 0, offset 0] [from ]
!308 = metadata !{metadata !234, metadata !19, metadata !95}
!309 = metadata !{metadata !310}
!310 = metadata !{metadata !311, metadata !312}
!311 = metadata !{i32 786689, metadata !306, metadata !"pFlags", metadata !231, i32 16777276, metadata !19, i32 0, i32 0} ; [ DW_TAG_arg_variable ] [pFlags] [line 60]
!312 = metadata !{i32 786689, metadata !306, metadata !"pHost", metadata !231, i32 33554492, metadata !95, i32 0, i32 0} ; [ DW_TAG_arg_variable ] [pHost] [line 60]
!313 = metadata !{i32 786478, i32 0, metadata !231, metadata !"cudaHostRegister", metadata !"cudaHostRegister", metadata !"", metadata !231, i32 64, metadata !314, i1 false, i1 true, i32 0, i32 0, null, i32 256, i1 true, i32 (i8*, i64, i32)* @cudaHostReg
!314 = metadata !{i32 786453, i32 0, metadata !"", i32 0, i32 0, i64 0, i64 0, i64 0, i32 0, null, metadata !315, i32 0, i32 0} ; [ DW_TAG_subroutine_type ] [line 0, size 0, align 0, offset 0] [from ]
!315 = metadata !{metadata !234, metadata !95, metadata !247, metadata !20}
!316 = metadata !{metadata !317}
!317 = metadata !{metadata !318, metadata !319, metadata !320}
!318 = metadata !{i32 786689, metadata !313, metadata !"ptr", metadata !231, i32 16777280, metadata !95, i32 0, i32 0} ; [ DW_TAG_arg_variable ] [ptr] [line 64]
!319 = metadata !{i32 786689, metadata !313, metadata !"size", metadata !231, i32 33554496, metadata !247, i32 0, i32 0} ; [ DW_TAG_arg_variable ] [size] [line 64]
!320 = metadata !{i32 786689, metadata !313, metadata !"flags", metadata !231, i32 50331712, metadata !20, i32 0, i32 0} ; [ DW_TAG_arg_variable ] [flags] [line 64]
!321 = metadata !{i32 786478, i32 0, metadata !231, metadata !"cudaHostUnregister", metadata !"cudaHostUnregister", metadata !"", metadata !231, i32 68, metadata !259, i1 false, i1 true, i32 0, i32 0, null, i32 256, i1 true, i32 (i8*)* @cudaHostUnregiste
!322 = metadata !{metadata !323}
!323 = metadata !{metadata !324}
!324 = metadata !{i32 786689, metadata !321, metadata !"ptr", metadata !231, i32 16777284, metadata !95, i32 0, i32 0} ; [ DW_TAG_arg_variable ] [ptr] [line 68]
!325 = metadata !{i32 786478, i32 0, metadata !231, metadata !"cudaMalloc", metadata !"cudaMalloc", metadata !"", metadata !231, i32 72, metadata !326, i1 false, i1 true, i32 0, i32 0, null, i32 256, i1 true, i32 (i8**, i64)* @cudaMalloc, null, null, met
!326 = metadata !{i32 786453, i32 0, metadata !"", i32 0, i32 0, i64 0, i64 0, i64 0, i32 0, null, metadata !327, i32 0, i32 0} ; [ DW_TAG_subroutine_type ] [line 0, size 0, align 0, offset 0] [from ]
!327 = metadata !{metadata !234, metadata !277, metadata !247}
!328 = metadata !{metadata !329}
!329 = metadata !{metadata !330, metadata !331}
!330 = metadata !{i32 786689, metadata !325, metadata !"devPtr", metadata !231, i32 16777288, metadata !277, i32 0, i32 0} ; [ DW_TAG_arg_variable ] [devPtr] [line 72]
!331 = metadata !{i32 786689, metadata !325, metadata !"size", metadata !231, i32 33554504, metadata !247, i32 0, i32 0} ; [ DW_TAG_arg_variable ] [size] [line 72]
!332 = metadata !{i32 786478, i32 0, metadata !231, metadata !"cudaMalloc3D", metadata !"cudaMalloc3D", metadata !"", metadata !231, i32 80, metadata !333, i1 false, i1 true, i32 0, i32 0, null, i32 256, i1 true, i32 (%struct.cudaPitchedPtr*, %struct.cud
!333 = metadata !{i32 786453, i32 0, metadata !"", i32 0, i32 0, i64 0, i64 0, i64 0, i32 0, null, metadata !334, i32 0, i32 0} ; [ DW_TAG_subroutine_type ] [line 0, size 0, align 0, offset 0] [from ]
!334 = metadata !{metadata !234, metadata !335, metadata !244}
!335 = metadata !{i32 786447, null, metadata !"", null, i32 0, i64 64, i64 64, i64 0, i32 0, metadata !336} ; [ DW_TAG_pointer_type ] [line 0, size 64, align 64, offset 0] [from cudaPitchedPtr]
!336 = metadata !{i32 786451, null, metadata !"cudaPitchedPtr", metadata !147, i32 718, i64 256, i64 64, i32 0, i32 0, null, metadata !337, i32 0, null, null} ; [ DW_TAG_structure_type ] [cudaPitchedPtr] [line 718, size 256, align 64, offset 0] [from ]
!337 = metadata !{metadata !338, metadata !339, metadata !340, metadata !341}
!338 = metadata !{i32 786445, metadata !336, metadata !"ptr", metadata !147, i32 720, i64 64, i64 64, i64 0, i32 0, metadata !95} ; [ DW_TAG_member ] [ptr] [line 720, size 64, align 64, offset 0] [from ]
!339 = metadata !{i32 786445, metadata !336, metadata !"pitch", metadata !147, i32 721, i64 64, i64 64, i64 64, i32 0, metadata !247} ; [ DW_TAG_member ] [pitch] [line 721, size 64, align 64, offset 64] [from size_t]
!340 = metadata !{i32 786445, metadata !336, metadata !"xsize", metadata !147, i32 722, i64 64, i64 64, i64 128, i32 0, metadata !247} ; [ DW_TAG_member ] [xsize] [line 722, size 64, align 64, offset 128] [from size_t]
!341 = metadata !{i32 786445, metadata !336, metadata !"ysize", metadata !147, i32 723, i64 64, i64 64, i64 192, i32 0, metadata !247} ; [ DW_TAG_member ] [ysize] [line 723, size 64, align 64, offset 192] [from size_t]
!342 = metadata !{metadata !343}
!343 = metadata !{metadata !344, metadata !345}
!344 = metadata !{i32 786689, metadata !332, metadata !"pitchedDevPtr", metadata !231, i32 16777296, metadata !335, i32 0, i32 0} ; [ DW_TAG_arg_variable ] [pitchedDevPtr] [line 80]
!345 = metadata !{i32 786689, metadata !332, metadata !"extent", metadata !231, i32 33554512, metadata !244, i32 0, i32 0} ; [ DW_TAG_arg_variable ] [extent] [line 80]
!346 = metadata !{i32 786478, i32 0, metadata !231, metadata !"cudaMalloc3DArray", metadata !"cudaMalloc3DArray", metadata !"", metadata !231, i32 84, metadata !347, i1 false, i1 true, i32 0, i32 0, null, i32 256, i1 true, i32 (%struct.cudaArray**, %stru
!347 = metadata !{i32 786453, i32 0, metadata !"", i32 0, i32 0, i64 0, i64 0, i64 0, i32 0, null, metadata !348, i32 0, i32 0} ; [ DW_TAG_subroutine_type ] [line 0, size 0, align 0, offset 0] [from ]
!348 = metadata !{metadata !234, metadata !349, metadata !235, metadata !244, metadata !20}
!349 = metadata !{i32 786447, null, metadata !"", null, i32 0, i64 64, i64 64, i64 0, i32 0, metadata !250} ; [ DW_TAG_pointer_type ] [line 0, size 64, align 64, offset 0] [from ]
!350 = metadata !{metadata !351}
!351 = metadata !{metadata !352, metadata !353, metadata !354, metadata !355}
!352 = metadata !{i32 786689, metadata !346, metadata !"array", metadata !231, i32 16777300, metadata !349, i32 0, i32 0} ; [ DW_TAG_arg_variable ] [array] [line 84]
!353 = metadata !{i32 786689, metadata !346, metadata !"desc", metadata !231, i32 33554516, metadata !235, i32 0, i32 0} ; [ DW_TAG_arg_variable ] [desc] [line 84]
!354 = metadata !{i32 786689, metadata !346, metadata !"extent", metadata !231, i32 50331733, metadata !244, i32 0, i32 0} ; [ DW_TAG_arg_variable ] [extent] [line 85]
!355 = metadata !{i32 786689, metadata !346, metadata !"flags", metadata !231, i32 67108949, metadata !20, i32 0, i32 0} ; [ DW_TAG_arg_variable ] [flags] [line 85]
!356 = metadata !{i32 786478, i32 0, metadata !231, metadata !"cudaMallocArray", metadata !"cudaMallocArray", metadata !"", metadata !231, i32 89, metadata !357, i1 false, i1 true, i32 0, i32 0, null, i32 256, i1 true, i32 (%struct.cudaArray**, %struct.c
!357 = metadata !{i32 786453, i32 0, metadata !"", i32 0, i32 0, i64 0, i64 0, i64 0, i32 0, null, metadata !358, i32 0, i32 0} ; [ DW_TAG_subroutine_type ] [line 0, size 0, align 0, offset 0] [from ]
!358 = metadata !{metadata !234, metadata !349, metadata !235, metadata !247, metadata !247, metadata !20}
!359 = metadata !{metadata !360}
!360 = metadata !{metadata !361, metadata !362, metadata !363, metadata !364, metadata !365}
!361 = metadata !{i32 786689, metadata !356, metadata !"array", metadata !231, i32 16777305, metadata !349, i32 0, i32 0} ; [ DW_TAG_arg_variable ] [array] [line 89]
!362 = metadata !{i32 786689, metadata !356, metadata !"desc", metadata !231, i32 33554521, metadata !235, i32 0, i32 0} ; [ DW_TAG_arg_variable ] [desc] [line 89]
!363 = metadata !{i32 786689, metadata !356, metadata !"width", metadata !231, i32 50331738, metadata !247, i32 0, i32 0} ; [ DW_TAG_arg_variable ] [width] [line 90]
!364 = metadata !{i32 786689, metadata !356, metadata !"height", metadata !231, i32 67108954, metadata !247, i32 0, i32 0} ; [ DW_TAG_arg_variable ] [height] [line 90]
!365 = metadata !{i32 786689, metadata !356, metadata !"flags", metadata !231, i32 83886170, metadata !20, i32 0, i32 0} ; [ DW_TAG_arg_variable ] [flags] [line 90]
!366 = metadata !{i32 786478, i32 0, metadata !231, metadata !"cudaMallocHost", metadata !"cudaMallocHost", metadata !"", metadata !231, i32 94, metadata !326, i1 false, i1 true, i32 0, i32 0, null, i32 256, i1 true, i32 (i8**, i64)* @cudaMallocHost, nul
!367 = metadata !{metadata !368}
!368 = metadata !{metadata !369, metadata !370}
!369 = metadata !{i32 786689, metadata !366, metadata !"ptr", metadata !231, i32 16777310, metadata !277, i32 0, i32 0} ; [ DW_TAG_arg_variable ] [ptr] [line 94]
!370 = metadata !{i32 786689, metadata !366, metadata !"size", metadata !231, i32 33554526, metadata !247, i32 0, i32 0} ; [ DW_TAG_arg_variable ] [size] [line 94]
!371 = metadata !{i32 786478, i32 0, metadata !231, metadata !"cudaMallocPitch", metadata !"cudaMallocPitch", metadata !"", metadata !231, i32 102, metadata !372, i1 false, i1 true, i32 0, i32 0, null, i32 256, i1 true, i32 (i8**, i64*, i64, i64)* @cudaM
!372 = metadata !{i32 786453, i32 0, metadata !"", i32 0, i32 0, i64 0, i64 0, i64 0, i32 0, null, metadata !373, i32 0, i32 0} ; [ DW_TAG_subroutine_type ] [line 0, size 0, align 0, offset 0] [from ]
!373 = metadata !{metadata !234, metadata !277, metadata !285, metadata !247, metadata !247}
!374 = metadata !{metadata !375}
!375 = metadata !{metadata !376, metadata !377, metadata !378, metadata !379}
!376 = metadata !{i32 786689, metadata !371, metadata !"devPtr", metadata !231, i32 16777318, metadata !277, i32 0, i32 0} ; [ DW_TAG_arg_variable ] [devPtr] [line 102]
!377 = metadata !{i32 786689, metadata !371, metadata !"pitch", metadata !231, i32 33554534, metadata !285, i32 0, i32 0} ; [ DW_TAG_arg_variable ] [pitch] [line 102]
!378 = metadata !{i32 786689, metadata !371, metadata !"width", metadata !231, i32 50331750, metadata !247, i32 0, i32 0} ; [ DW_TAG_arg_variable ] [width] [line 102]
!379 = metadata !{i32 786689, metadata !371, metadata !"height", metadata !231, i32 67108966, metadata !247, i32 0, i32 0} ; [ DW_TAG_arg_variable ] [height] [line 102]
!380 = metadata !{i32 786478, i32 0, metadata !231, metadata !"cudaMemcpy", metadata !"cudaMemcpy", metadata !"", metadata !231, i32 106, metadata !381, i1 false, i1 true, i32 0, i32 0, null, i32 256, i1 true, i32 (i8*, i8*, i64, i32)* @cudaMemcpy, null,
!381 = metadata !{i32 786453, i32 0, metadata !"", i32 0, i32 0, i64 0, i64 0, i64 0, i32 0, null, metadata !382, i32 0, i32 0} ; [ DW_TAG_subroutine_type ] [line 0, size 0, align 0, offset 0] [from ]
!382 = metadata !{metadata !234, metadata !95, metadata !96, metadata !247, metadata !227}
!383 = metadata !{metadata !384}
!384 = metadata !{metadata !385, metadata !386, metadata !387, metadata !388}
!385 = metadata !{i32 786689, metadata !380, metadata !"dst", metadata !231, i32 16777322, metadata !95, i32 0, i32 0} ; [ DW_TAG_arg_variable ] [dst] [line 106]
!386 = metadata !{i32 786689, metadata !380, metadata !"src", metadata !231, i32 33554538, metadata !96, i32 0, i32 0} ; [ DW_TAG_arg_variable ] [src] [line 106]
!387 = metadata !{i32 786689, metadata !380, metadata !"count", metadata !231, i32 50331754, metadata !247, i32 0, i32 0} ; [ DW_TAG_arg_variable ] [count] [line 106]
!388 = metadata !{i32 786689, metadata !380, metadata !"kind", metadata !231, i32 67108970, metadata !227, i32 0, i32 0} ; [ DW_TAG_arg_variable ] [kind] [line 106]
!389 = metadata !{i32 786478, i32 0, metadata !231, metadata !"cudaMemcpy2D", metadata !"cudaMemcpy2D", metadata !"", metadata !231, i32 111, metadata !390, i1 false, i1 true, i32 0, i32 0, null, i32 256, i1 true, i32 (i8*, i64, i8*, i64, i64, i64, i32)*
!390 = metadata !{i32 786453, i32 0, metadata !"", i32 0, i32 0, i64 0, i64 0, i64 0, i32 0, null, metadata !391, i32 0, i32 0} ; [ DW_TAG_subroutine_type ] [line 0, size 0, align 0, offset 0] [from ]
!391 = metadata !{metadata !234, metadata !95, metadata !247, metadata !96, metadata !247, metadata !247, metadata !247, metadata !227}
!392 = metadata !{metadata !393}
!393 = metadata !{metadata !394, metadata !395, metadata !396, metadata !397, metadata !398, metadata !399, metadata !400}
!394 = metadata !{i32 786689, metadata !389, metadata !"dst", metadata !231, i32 16777327, metadata !95, i32 0, i32 0} ; [ DW_TAG_arg_variable ] [dst] [line 111]
!395 = metadata !{i32 786689, metadata !389, metadata !"dpitch", metadata !231, i32 33554543, metadata !247, i32 0, i32 0} ; [ DW_TAG_arg_variable ] [dpitch] [line 111]
!396 = metadata !{i32 786689, metadata !389, metadata !"src", metadata !231, i32 50331759, metadata !96, i32 0, i32 0} ; [ DW_TAG_arg_variable ] [src] [line 111]
!397 = metadata !{i32 786689, metadata !389, metadata !"spitch", metadata !231, i32 67108975, metadata !247, i32 0, i32 0} ; [ DW_TAG_arg_variable ] [spitch] [line 111]
!398 = metadata !{i32 786689, metadata !389, metadata !"width", metadata !231, i32 83886192, metadata !247, i32 0, i32 0} ; [ DW_TAG_arg_variable ] [width] [line 112]
!399 = metadata !{i32 786689, metadata !389, metadata !"height", metadata !231, i32 100663408, metadata !247, i32 0, i32 0} ; [ DW_TAG_arg_variable ] [height] [line 112]
!400 = metadata !{i32 786689, metadata !389, metadata !"kind", metadata !231, i32 117440624, metadata !227, i32 0, i32 0} ; [ DW_TAG_arg_variable ] [kind] [line 112]
!401 = metadata !{i32 786478, i32 0, metadata !231, metadata !"cudaMemcpy2DArrayToArray", metadata !"cudaMemcpy2DArrayToArray", metadata !"", metadata !231, i32 116, metadata !402, i1 false, i1 true, i32 0, i32 0, null, i32 256, i1 true, i32 (%struct.cud
!402 = metadata !{i32 786453, i32 0, metadata !"", i32 0, i32 0, i64 0, i64 0, i64 0, i32 0, null, metadata !403, i32 0, i32 0} ; [ DW_TAG_subroutine_type ] [line 0, size 0, align 0, offset 0] [from ]
!403 = metadata !{metadata !234, metadata !250, metadata !247, metadata !247, metadata !250, metadata !247, metadata !247, metadata !247, metadata !247, metadata !227}
!404 = metadata !{metadata !405}
!405 = metadata !{metadata !406, metadata !407, metadata !408, metadata !409, metadata !410, metadata !411, metadata !412, metadata !413, metadata !414}
!406 = metadata !{i32 786689, metadata !401, metadata !"dst", metadata !231, i32 16777332, metadata !250, i32 0, i32 0} ; [ DW_TAG_arg_variable ] [dst] [line 116]
!407 = metadata !{i32 786689, metadata !401, metadata !"wOffsetDst", metadata !231, i32 33554548, metadata !247, i32 0, i32 0} ; [ DW_TAG_arg_variable ] [wOffsetDst] [line 116]
!408 = metadata !{i32 786689, metadata !401, metadata !"hOffsetDst", metadata !231, i32 50331764, metadata !247, i32 0, i32 0} ; [ DW_TAG_arg_variable ] [hOffsetDst] [line 116]
!409 = metadata !{i32 786689, metadata !401, metadata !"src", metadata !231, i32 67108981, metadata !250, i32 0, i32 0} ; [ DW_TAG_arg_variable ] [src] [line 117]
!410 = metadata !{i32 786689, metadata !401, metadata !"wOffsetSrc", metadata !231, i32 83886197, metadata !247, i32 0, i32 0} ; [ DW_TAG_arg_variable ] [wOffsetSrc] [line 117]
!411 = metadata !{i32 786689, metadata !401, metadata !"hOffsetSrc", metadata !231, i32 100663413, metadata !247, i32 0, i32 0} ; [ DW_TAG_arg_variable ] [hOffsetSrc] [line 117]
!412 = metadata !{i32 786689, metadata !401, metadata !"width", metadata !231, i32 117440630, metadata !247, i32 0, i32 0} ; [ DW_TAG_arg_variable ] [width] [line 118]
!413 = metadata !{i32 786689, metadata !401, metadata !"height", metadata !231, i32 134217846, metadata !247, i32 0, i32 0} ; [ DW_TAG_arg_variable ] [height] [line 118]
!414 = metadata !{i32 786689, metadata !401, metadata !"kind", metadata !231, i32 150995062, metadata !227, i32 0, i32 0} ; [ DW_TAG_arg_variable ] [kind] [line 118]
!415 = metadata !{i32 786478, i32 0, metadata !231, metadata !"cudaMemcpy2DAsync", metadata !"cudaMemcpy2DAsync", metadata !"", metadata !231, i32 122, metadata !416, i1 false, i1 true, i32 0, i32 0, null, i32 256, i1 true, i32 (i8*, i64, i8*, i64, i64, 
!416 = metadata !{i32 786453, i32 0, metadata !"", i32 0, i32 0, i64 0, i64 0, i64 0, i32 0, null, metadata !417, i32 0, i32 0} ; [ DW_TAG_subroutine_type ] [line 0, size 0, align 0, offset 0] [from ]
!417 = metadata !{metadata !234, metadata !95, metadata !247, metadata !96, metadata !247, metadata !247, metadata !247, metadata !227, metadata !418}
!418 = metadata !{i32 786454, null, metadata !"cudaStream_t", metadata !231, i32 1298, i64 0, i64 0, i64 0, i32 0, metadata !419} ; [ DW_TAG_typedef ] [cudaStream_t] [line 1298, size 0, align 0, offset 0] [from ]
!419 = metadata !{i32 786447, null, metadata !"", null, i32 0, i64 64, i64 64, i64 0, i32 0, metadata !420} ; [ DW_TAG_pointer_type ] [line 0, size 64, align 64, offset 0] [from CUstream_st]
!420 = metadata !{i32 786451, null, metadata !"CUstream_st", metadata !147, i32 1298, i64 0, i64 0, i32 0, i32 4, null, null, i32 0} ; [ DW_TAG_structure_type ] [CUstream_st] [line 1298, size 0, align 0, offset 0] [fwd] [from ]
!421 = metadata !{metadata !422}
!422 = metadata !{metadata !423, metadata !424, metadata !425, metadata !426, metadata !427, metadata !428, metadata !429, metadata !430}
!423 = metadata !{i32 786689, metadata !415, metadata !"dst", metadata !231, i32 16777338, metadata !95, i32 0, i32 0} ; [ DW_TAG_arg_variable ] [dst] [line 122]
!424 = metadata !{i32 786689, metadata !415, metadata !"dpitch", metadata !231, i32 33554554, metadata !247, i32 0, i32 0} ; [ DW_TAG_arg_variable ] [dpitch] [line 122]
!425 = metadata !{i32 786689, metadata !415, metadata !"src", metadata !231, i32 50331770, metadata !96, i32 0, i32 0} ; [ DW_TAG_arg_variable ] [src] [line 122]
!426 = metadata !{i32 786689, metadata !415, metadata !"spitch", metadata !231, i32 67108986, metadata !247, i32 0, i32 0} ; [ DW_TAG_arg_variable ] [spitch] [line 122]
!427 = metadata !{i32 786689, metadata !415, metadata !"width", metadata !231, i32 83886203, metadata !247, i32 0, i32 0} ; [ DW_TAG_arg_variable ] [width] [line 123]
!428 = metadata !{i32 786689, metadata !415, metadata !"height", metadata !231, i32 100663419, metadata !247, i32 0, i32 0} ; [ DW_TAG_arg_variable ] [height] [line 123]
!429 = metadata !{i32 786689, metadata !415, metadata !"kind", metadata !231, i32 117440635, metadata !227, i32 0, i32 0} ; [ DW_TAG_arg_variable ] [kind] [line 123]
!430 = metadata !{i32 786689, metadata !415, metadata !"stream", metadata !231, i32 134217852, metadata !418, i32 0, i32 0} ; [ DW_TAG_arg_variable ] [stream] [line 124]
!431 = metadata !{i32 786478, i32 0, metadata !231, metadata !"cudaMemcpy2DFromArray", metadata !"cudaMemcpy2DFromArray", metadata !"", metadata !231, i32 128, metadata !432, i1 false, i1 true, i32 0, i32 0, null, i32 256, i1 true, i32 (i8*, i64, %struct
!432 = metadata !{i32 786453, i32 0, metadata !"", i32 0, i32 0, i64 0, i64 0, i64 0, i32 0, null, metadata !433, i32 0, i32 0} ; [ DW_TAG_subroutine_type ] [line 0, size 0, align 0, offset 0] [from ]
!433 = metadata !{metadata !234, metadata !95, metadata !247, metadata !250, metadata !247, metadata !247, metadata !247, metadata !247, metadata !227}
!434 = metadata !{metadata !435}
!435 = metadata !{metadata !436, metadata !437, metadata !438, metadata !439, metadata !440, metadata !441, metadata !442, metadata !443}
!436 = metadata !{i32 786689, metadata !431, metadata !"dst", metadata !231, i32 16777344, metadata !95, i32 0, i32 0} ; [ DW_TAG_arg_variable ] [dst] [line 128]
!437 = metadata !{i32 786689, metadata !431, metadata !"dpitch", metadata !231, i32 33554560, metadata !247, i32 0, i32 0} ; [ DW_TAG_arg_variable ] [dpitch] [line 128]
!438 = metadata !{i32 786689, metadata !431, metadata !"src", metadata !231, i32 50331776, metadata !250, i32 0, i32 0} ; [ DW_TAG_arg_variable ] [src] [line 128]
!439 = metadata !{i32 786689, metadata !431, metadata !"wOffset", metadata !231, i32 67108993, metadata !247, i32 0, i32 0} ; [ DW_TAG_arg_variable ] [wOffset] [line 129]
!440 = metadata !{i32 786689, metadata !431, metadata !"hOffset", metadata !231, i32 83886209, metadata !247, i32 0, i32 0} ; [ DW_TAG_arg_variable ] [hOffset] [line 129]
!441 = metadata !{i32 786689, metadata !431, metadata !"width", metadata !231, i32 100663425, metadata !247, i32 0, i32 0} ; [ DW_TAG_arg_variable ] [width] [line 129]
!442 = metadata !{i32 786689, metadata !431, metadata !"height", metadata !231, i32 117440641, metadata !247, i32 0, i32 0} ; [ DW_TAG_arg_variable ] [height] [line 129]
!443 = metadata !{i32 786689, metadata !431, metadata !"kind", metadata !231, i32 134217858, metadata !227, i32 0, i32 0} ; [ DW_TAG_arg_variable ] [kind] [line 130]
!444 = metadata !{i32 786478, i32 0, metadata !231, metadata !"cudaMemcpy2DFromArrayAsync", metadata !"cudaMemcpy2DFromArrayAsync", metadata !"", metadata !231, i32 134, metadata !445, i1 false, i1 true, i32 0, i32 0, null, i32 256, i1 true, i32 (i8*, i6
!445 = metadata !{i32 786453, i32 0, metadata !"", i32 0, i32 0, i64 0, i64 0, i64 0, i32 0, null, metadata !446, i32 0, i32 0} ; [ DW_TAG_subroutine_type ] [line 0, size 0, align 0, offset 0] [from ]
!446 = metadata !{metadata !234, metadata !95, metadata !247, metadata !250, metadata !247, metadata !247, metadata !247, metadata !247, metadata !227, metadata !418}
!447 = metadata !{metadata !448}
!448 = metadata !{metadata !449, metadata !450, metadata !451, metadata !452, metadata !453, metadata !454, metadata !455, metadata !456, metadata !457}
!449 = metadata !{i32 786689, metadata !444, metadata !"dst", metadata !231, i32 16777350, metadata !95, i32 0, i32 0} ; [ DW_TAG_arg_variable ] [dst] [line 134]
!450 = metadata !{i32 786689, metadata !444, metadata !"dpitch", metadata !231, i32 33554566, metadata !247, i32 0, i32 0} ; [ DW_TAG_arg_variable ] [dpitch] [line 134]
!451 = metadata !{i32 786689, metadata !444, metadata !"src", metadata !231, i32 50331782, metadata !250, i32 0, i32 0} ; [ DW_TAG_arg_variable ] [src] [line 134]
!452 = metadata !{i32 786689, metadata !444, metadata !"wOffset", metadata !231, i32 67108999, metadata !247, i32 0, i32 0} ; [ DW_TAG_arg_variable ] [wOffset] [line 135]
!453 = metadata !{i32 786689, metadata !444, metadata !"hOffset", metadata !231, i32 83886215, metadata !247, i32 0, i32 0} ; [ DW_TAG_arg_variable ] [hOffset] [line 135]
!454 = metadata !{i32 786689, metadata !444, metadata !"width", metadata !231, i32 100663431, metadata !247, i32 0, i32 0} ; [ DW_TAG_arg_variable ] [width] [line 135]
!455 = metadata !{i32 786689, metadata !444, metadata !"height", metadata !231, i32 117440647, metadata !247, i32 0, i32 0} ; [ DW_TAG_arg_variable ] [height] [line 135]
!456 = metadata !{i32 786689, metadata !444, metadata !"kind", metadata !231, i32 134217864, metadata !227, i32 0, i32 0} ; [ DW_TAG_arg_variable ] [kind] [line 136]
!457 = metadata !{i32 786689, metadata !444, metadata !"stream", metadata !231, i32 150995080, metadata !418, i32 0, i32 0} ; [ DW_TAG_arg_variable ] [stream] [line 136]
!458 = metadata !{i32 786478, i32 0, metadata !231, metadata !"cudaMemcpy2DToArray", metadata !"cudaMemcpy2DToArray", metadata !"", metadata !231, i32 140, metadata !459, i1 false, i1 true, i32 0, i32 0, null, i32 256, i1 true, i32 (%struct.cudaArray*, i
!459 = metadata !{i32 786453, i32 0, metadata !"", i32 0, i32 0, i64 0, i64 0, i64 0, i32 0, null, metadata !460, i32 0, i32 0} ; [ DW_TAG_subroutine_type ] [line 0, size 0, align 0, offset 0] [from ]
!460 = metadata !{metadata !234, metadata !250, metadata !247, metadata !247, metadata !96, metadata !247, metadata !247, metadata !247, metadata !227}
!461 = metadata !{metadata !462}
!462 = metadata !{metadata !463, metadata !464, metadata !465, metadata !466, metadata !467, metadata !468, metadata !469, metadata !470}
!463 = metadata !{i32 786689, metadata !458, metadata !"dst", metadata !231, i32 16777356, metadata !250, i32 0, i32 0} ; [ DW_TAG_arg_variable ] [dst] [line 140]
!464 = metadata !{i32 786689, metadata !458, metadata !"wOffset", metadata !231, i32 33554572, metadata !247, i32 0, i32 0} ; [ DW_TAG_arg_variable ] [wOffset] [line 140]
!465 = metadata !{i32 786689, metadata !458, metadata !"hOffset", metadata !231, i32 50331788, metadata !247, i32 0, i32 0} ; [ DW_TAG_arg_variable ] [hOffset] [line 140]
!466 = metadata !{i32 786689, metadata !458, metadata !"src", metadata !231, i32 67109005, metadata !96, i32 0, i32 0} ; [ DW_TAG_arg_variable ] [src] [line 141]
!467 = metadata !{i32 786689, metadata !458, metadata !"spitch", metadata !231, i32 83886221, metadata !247, i32 0, i32 0} ; [ DW_TAG_arg_variable ] [spitch] [line 141]
!468 = metadata !{i32 786689, metadata !458, metadata !"width", metadata !231, i32 100663437, metadata !247, i32 0, i32 0} ; [ DW_TAG_arg_variable ] [width] [line 141]
!469 = metadata !{i32 786689, metadata !458, metadata !"height", metadata !231, i32 117440653, metadata !247, i32 0, i32 0} ; [ DW_TAG_arg_variable ] [height] [line 141]
!470 = metadata !{i32 786689, metadata !458, metadata !"kind", metadata !231, i32 134217870, metadata !227, i32 0, i32 0} ; [ DW_TAG_arg_variable ] [kind] [line 142]
!471 = metadata !{i32 786478, i32 0, metadata !231, metadata !"cudaMemcpy2DToArrayAsync", metadata !"cudaMemcpy2DToArrayAsync", metadata !"", metadata !231, i32 146, metadata !472, i1 false, i1 true, i32 0, i32 0, null, i32 256, i1 true, i32 (%struct.cud
!472 = metadata !{i32 786453, i32 0, metadata !"", i32 0, i32 0, i64 0, i64 0, i64 0, i32 0, null, metadata !473, i32 0, i32 0} ; [ DW_TAG_subroutine_type ] [line 0, size 0, align 0, offset 0] [from ]
!473 = metadata !{metadata !234, metadata !250, metadata !247, metadata !247, metadata !96, metadata !247, metadata !247, metadata !247, metadata !227, metadata !418}
!474 = metadata !{metadata !475}
!475 = metadata !{metadata !476, metadata !477, metadata !478, metadata !479, metadata !480, metadata !481, metadata !482, metadata !483, metadata !484}
!476 = metadata !{i32 786689, metadata !471, metadata !"dst", metadata !231, i32 16777362, metadata !250, i32 0, i32 0} ; [ DW_TAG_arg_variable ] [dst] [line 146]
!477 = metadata !{i32 786689, metadata !471, metadata !"wOffset", metadata !231, i32 33554578, metadata !247, i32 0, i32 0} ; [ DW_TAG_arg_variable ] [wOffset] [line 146]
!478 = metadata !{i32 786689, metadata !471, metadata !"hOffset", metadata !231, i32 50331794, metadata !247, i32 0, i32 0} ; [ DW_TAG_arg_variable ] [hOffset] [line 146]
!479 = metadata !{i32 786689, metadata !471, metadata !"src", metadata !231, i32 67109011, metadata !96, i32 0, i32 0} ; [ DW_TAG_arg_variable ] [src] [line 147]
!480 = metadata !{i32 786689, metadata !471, metadata !"spitch", metadata !231, i32 83886227, metadata !247, i32 0, i32 0} ; [ DW_TAG_arg_variable ] [spitch] [line 147]
!481 = metadata !{i32 786689, metadata !471, metadata !"width", metadata !231, i32 100663443, metadata !247, i32 0, i32 0} ; [ DW_TAG_arg_variable ] [width] [line 147]
!482 = metadata !{i32 786689, metadata !471, metadata !"height", metadata !231, i32 117440659, metadata !247, i32 0, i32 0} ; [ DW_TAG_arg_variable ] [height] [line 147]
!483 = metadata !{i32 786689, metadata !471, metadata !"kind", metadata !231, i32 134217876, metadata !227, i32 0, i32 0} ; [ DW_TAG_arg_variable ] [kind] [line 148]
!484 = metadata !{i32 786689, metadata !471, metadata !"stream", metadata !231, i32 150995092, metadata !418, i32 0, i32 0} ; [ DW_TAG_arg_variable ] [stream] [line 148]
!485 = metadata !{i32 786478, i32 0, metadata !231, metadata !"cudaMemcpy3D", metadata !"cudaMemcpy3D", metadata !"", metadata !231, i32 152, metadata !486, i1 false, i1 true, i32 0, i32 0, null, i32 256, i1 true, i32 (%struct.cudaMemcpy3DParms*)* @cudaM
!486 = metadata !{i32 786453, i32 0, metadata !"", i32 0, i32 0, i64 0, i64 0, i64 0, i32 0, null, metadata !487, i32 0, i32 0} ; [ DW_TAG_subroutine_type ] [line 0, size 0, align 0, offset 0] [from ]
!487 = metadata !{metadata !234, metadata !488}
!488 = metadata !{i32 786447, null, metadata !"", null, i32 0, i64 64, i64 64, i64 0, i32 0, metadata !489} ; [ DW_TAG_pointer_type ] [line 0, size 64, align 64, offset 0] [from ]
!489 = metadata !{i32 786470, null, metadata !"", null, i32 0, i64 0, i64 0, i64 0, i32 0, metadata !490} ; [ DW_TAG_const_type ] [line 0, size 0, align 0, offset 0] [from cudaMemcpy3DParms]
!490 = metadata !{i32 786451, null, metadata !"cudaMemcpy3DParms", metadata !147, i32 751, i64 1280, i64 64, i32 0, i32 0, null, metadata !491, i32 0, null, null} ; [ DW_TAG_structure_type ] [cudaMemcpy3DParms] [line 751, size 1280, align 64, offset 0] [
!491 = metadata !{metadata !492, metadata !494, metadata !500, metadata !501, metadata !502, metadata !503, metadata !504, metadata !505}
!492 = metadata !{i32 786445, metadata !490, metadata !"srcArray", metadata !147, i32 753, i64 64, i64 64, i64 0, i32 0, metadata !493} ; [ DW_TAG_member ] [srcArray] [line 753, size 64, align 64, offset 0] [from cudaArray_t]
!493 = metadata !{i32 786454, null, metadata !"cudaArray_t", metadata !147, i32 672, i64 0, i64 0, i64 0, i32 0, metadata !250} ; [ DW_TAG_typedef ] [cudaArray_t] [line 672, size 0, align 0, offset 0] [from ]
!494 = metadata !{i32 786445, metadata !490, metadata !"srcPos", metadata !147, i32 754, i64 192, i64 64, i64 64, i32 0, metadata !495} ; [ DW_TAG_member ] [srcPos] [line 754, size 192, align 64, offset 64] [from cudaPos]
!495 = metadata !{i32 786451, null, metadata !"cudaPos", metadata !147, i32 741, i64 192, i64 64, i32 0, i32 0, null, metadata !496, i32 0, null, null} ; [ DW_TAG_structure_type ] [cudaPos] [line 741, size 192, align 64, offset 0] [from ]
!496 = metadata !{metadata !497, metadata !498, metadata !499}
!497 = metadata !{i32 786445, metadata !495, metadata !"x", metadata !147, i32 743, i64 64, i64 64, i64 0, i32 0, metadata !247} ; [ DW_TAG_member ] [x] [line 743, size 64, align 64, offset 0] [from size_t]
!498 = metadata !{i32 786445, metadata !495, metadata !"y", metadata !147, i32 744, i64 64, i64 64, i64 64, i32 0, metadata !247} ; [ DW_TAG_member ] [y] [line 744, size 64, align 64, offset 64] [from size_t]
!499 = metadata !{i32 786445, metadata !495, metadata !"z", metadata !147, i32 745, i64 64, i64 64, i64 128, i32 0, metadata !247} ; [ DW_TAG_member ] [z] [line 745, size 64, align 64, offset 128] [from size_t]
!500 = metadata !{i32 786445, metadata !490, metadata !"srcPtr", metadata !147, i32 755, i64 256, i64 64, i64 256, i32 0, metadata !336} ; [ DW_TAG_member ] [srcPtr] [line 755, size 256, align 64, offset 256] [from cudaPitchedPtr]
!501 = metadata !{i32 786445, metadata !490, metadata !"dstArray", metadata !147, i32 757, i64 64, i64 64, i64 512, i32 0, metadata !493} ; [ DW_TAG_member ] [dstArray] [line 757, size 64, align 64, offset 512] [from cudaArray_t]
!502 = metadata !{i32 786445, metadata !490, metadata !"dstPos", metadata !147, i32 758, i64 192, i64 64, i64 576, i32 0, metadata !495} ; [ DW_TAG_member ] [dstPos] [line 758, size 192, align 64, offset 576] [from cudaPos]
!503 = metadata !{i32 786445, metadata !490, metadata !"dstPtr", metadata !147, i32 759, i64 256, i64 64, i64 768, i32 0, metadata !336} ; [ DW_TAG_member ] [dstPtr] [line 759, size 256, align 64, offset 768] [from cudaPitchedPtr]
!504 = metadata !{i32 786445, metadata !490, metadata !"extent", metadata !147, i32 761, i64 192, i64 64, i64 1024, i32 0, metadata !244} ; [ DW_TAG_member ] [extent] [line 761, size 192, align 64, offset 1024] [from cudaExtent]
!505 = metadata !{i32 786445, metadata !490, metadata !"kind", metadata !147, i32 762, i64 32, i64 32, i64 1216, i32 0, metadata !227} ; [ DW_TAG_member ] [kind] [line 762, size 32, align 32, offset 1216] [from cudaMemcpyKind]
!506 = metadata !{metadata !507}
!507 = metadata !{metadata !508}
!508 = metadata !{i32 786689, metadata !485, metadata !"p", metadata !231, i32 16777368, metadata !488, i32 0, i32 0} ; [ DW_TAG_arg_variable ] [p] [line 152]
!509 = metadata !{i32 786478, i32 0, metadata !231, metadata !"cudaMemcpy3DAsync", metadata !"cudaMemcpy3DAsync", metadata !"", metadata !231, i32 156, metadata !510, i1 false, i1 true, i32 0, i32 0, null, i32 256, i1 true, i32 (%struct.cudaMemcpy3DParms
!510 = metadata !{i32 786453, i32 0, metadata !"", i32 0, i32 0, i64 0, i64 0, i64 0, i32 0, null, metadata !511, i32 0, i32 0} ; [ DW_TAG_subroutine_type ] [line 0, size 0, align 0, offset 0] [from ]
!511 = metadata !{metadata !234, metadata !488, metadata !418}
!512 = metadata !{metadata !513}
!513 = metadata !{metadata !514, metadata !515}
!514 = metadata !{i32 786689, metadata !509, metadata !"p", metadata !231, i32 16777372, metadata !488, i32 0, i32 0} ; [ DW_TAG_arg_variable ] [p] [line 156]
!515 = metadata !{i32 786689, metadata !509, metadata !"stream", metadata !231, i32 33554588, metadata !418, i32 0, i32 0} ; [ DW_TAG_arg_variable ] [stream] [line 156]
!516 = metadata !{i32 786478, i32 0, metadata !231, metadata !"cudaMemcpy3DPeer", metadata !"cudaMemcpy3DPeer", metadata !"", metadata !231, i32 160, metadata !517, i1 false, i1 true, i32 0, i32 0, null, i32 256, i1 true, i32 (%struct.cudaMemcpy3DPeerPar
!517 = metadata !{i32 786453, i32 0, metadata !"", i32 0, i32 0, i64 0, i64 0, i64 0, i32 0, null, metadata !518, i32 0, i32 0} ; [ DW_TAG_subroutine_type ] [line 0, size 0, align 0, offset 0] [from ]
!518 = metadata !{metadata !234, metadata !519}
!519 = metadata !{i32 786447, null, metadata !"", null, i32 0, i64 64, i64 64, i64 0, i32 0, metadata !520} ; [ DW_TAG_pointer_type ] [line 0, size 64, align 64, offset 0] [from ]
!520 = metadata !{i32 786470, null, metadata !"", null, i32 0, i64 0, i64 0, i64 0, i32 0, metadata !521} ; [ DW_TAG_const_type ] [line 0, size 0, align 0, offset 0] [from cudaMemcpy3DPeerParms]
!521 = metadata !{i32 786451, null, metadata !"cudaMemcpy3DPeerParms", metadata !147, i32 768, i64 1344, i64 64, i32 0, i32 0, null, metadata !522, i32 0, null, null} ; [ DW_TAG_structure_type ] [cudaMemcpy3DPeerParms] [line 768, size 1344, align 64, off
!522 = metadata !{metadata !523, metadata !524, metadata !525, metadata !526, metadata !527, metadata !528, metadata !529, metadata !530, metadata !531}
!523 = metadata !{i32 786445, metadata !521, metadata !"srcArray", metadata !147, i32 770, i64 64, i64 64, i64 0, i32 0, metadata !493} ; [ DW_TAG_member ] [srcArray] [line 770, size 64, align 64, offset 0] [from cudaArray_t]
!524 = metadata !{i32 786445, metadata !521, metadata !"srcPos", metadata !147, i32 771, i64 192, i64 64, i64 64, i32 0, metadata !495} ; [ DW_TAG_member ] [srcPos] [line 771, size 192, align 64, offset 64] [from cudaPos]
!525 = metadata !{i32 786445, metadata !521, metadata !"srcPtr", metadata !147, i32 772, i64 256, i64 64, i64 256, i32 0, metadata !336} ; [ DW_TAG_member ] [srcPtr] [line 772, size 256, align 64, offset 256] [from cudaPitchedPtr]
!526 = metadata !{i32 786445, metadata !521, metadata !"srcDevice", metadata !147, i32 773, i64 32, i64 32, i64 512, i32 0, metadata !21} ; [ DW_TAG_member ] [srcDevice] [line 773, size 32, align 32, offset 512] [from int]
!527 = metadata !{i32 786445, metadata !521, metadata !"dstArray", metadata !147, i32 775, i64 64, i64 64, i64 576, i32 0, metadata !493} ; [ DW_TAG_member ] [dstArray] [line 775, size 64, align 64, offset 576] [from cudaArray_t]
!528 = metadata !{i32 786445, metadata !521, metadata !"dstPos", metadata !147, i32 776, i64 192, i64 64, i64 640, i32 0, metadata !495} ; [ DW_TAG_member ] [dstPos] [line 776, size 192, align 64, offset 640] [from cudaPos]
!529 = metadata !{i32 786445, metadata !521, metadata !"dstPtr", metadata !147, i32 777, i64 256, i64 64, i64 832, i32 0, metadata !336} ; [ DW_TAG_member ] [dstPtr] [line 777, size 256, align 64, offset 832] [from cudaPitchedPtr]
!530 = metadata !{i32 786445, metadata !521, metadata !"dstDevice", metadata !147, i32 778, i64 32, i64 32, i64 1088, i32 0, metadata !21} ; [ DW_TAG_member ] [dstDevice] [line 778, size 32, align 32, offset 1088] [from int]
!531 = metadata !{i32 786445, metadata !521, metadata !"extent", metadata !147, i32 780, i64 192, i64 64, i64 1152, i32 0, metadata !244} ; [ DW_TAG_member ] [extent] [line 780, size 192, align 64, offset 1152] [from cudaExtent]
!532 = metadata !{metadata !533}
!533 = metadata !{metadata !534}
!534 = metadata !{i32 786689, metadata !516, metadata !"p", metadata !231, i32 16777376, metadata !519, i32 0, i32 0} ; [ DW_TAG_arg_variable ] [p] [line 160]
!535 = metadata !{i32 786478, i32 0, metadata !231, metadata !"cudaMemcpy3DPeerAsync", metadata !"cudaMemcpy3DPeerAsync", metadata !"", metadata !231, i32 164, metadata !536, i1 false, i1 true, i32 0, i32 0, null, i32 256, i1 true, i32 (%struct.cudaMemcp
!536 = metadata !{i32 786453, i32 0, metadata !"", i32 0, i32 0, i64 0, i64 0, i64 0, i32 0, null, metadata !537, i32 0, i32 0} ; [ DW_TAG_subroutine_type ] [line 0, size 0, align 0, offset 0] [from ]
!537 = metadata !{metadata !234, metadata !519, metadata !418}
!538 = metadata !{metadata !539}
!539 = metadata !{metadata !540, metadata !541}
!540 = metadata !{i32 786689, metadata !535, metadata !"p", metadata !231, i32 16777380, metadata !519, i32 0, i32 0} ; [ DW_TAG_arg_variable ] [p] [line 164]
!541 = metadata !{i32 786689, metadata !535, metadata !"stream", metadata !231, i32 33554596, metadata !418, i32 0, i32 0} ; [ DW_TAG_arg_variable ] [stream] [line 164]
!542 = metadata !{i32 786478, i32 0, metadata !231, metadata !"cudaMemcpyArrayToArray", metadata !"cudaMemcpyArrayToArray", metadata !"", metadata !231, i32 168, metadata !543, i1 false, i1 true, i32 0, i32 0, null, i32 256, i1 true, i32 (%struct.cudaArr
!543 = metadata !{i32 786453, i32 0, metadata !"", i32 0, i32 0, i64 0, i64 0, i64 0, i32 0, null, metadata !544, i32 0, i32 0} ; [ DW_TAG_subroutine_type ] [line 0, size 0, align 0, offset 0] [from ]
!544 = metadata !{metadata !234, metadata !250, metadata !247, metadata !247, metadata !250, metadata !247, metadata !247, metadata !247, metadata !227}
!545 = metadata !{metadata !546}
!546 = metadata !{metadata !547, metadata !548, metadata !549, metadata !550, metadata !551, metadata !552, metadata !553, metadata !554}
!547 = metadata !{i32 786689, metadata !542, metadata !"dst", metadata !231, i32 16777384, metadata !250, i32 0, i32 0} ; [ DW_TAG_arg_variable ] [dst] [line 168]
!548 = metadata !{i32 786689, metadata !542, metadata !"wOffsetDst", metadata !231, i32 33554600, metadata !247, i32 0, i32 0} ; [ DW_TAG_arg_variable ] [wOffsetDst] [line 168]
!549 = metadata !{i32 786689, metadata !542, metadata !"hOffsetDst", metadata !231, i32 50331816, metadata !247, i32 0, i32 0} ; [ DW_TAG_arg_variable ] [hOffsetDst] [line 168]
!550 = metadata !{i32 786689, metadata !542, metadata !"src", metadata !231, i32 67109033, metadata !250, i32 0, i32 0} ; [ DW_TAG_arg_variable ] [src] [line 169]
!551 = metadata !{i32 786689, metadata !542, metadata !"wOffsetSrc", metadata !231, i32 83886249, metadata !247, i32 0, i32 0} ; [ DW_TAG_arg_variable ] [wOffsetSrc] [line 169]
!552 = metadata !{i32 786689, metadata !542, metadata !"hOffsetSrc", metadata !231, i32 100663465, metadata !247, i32 0, i32 0} ; [ DW_TAG_arg_variable ] [hOffsetSrc] [line 169]
!553 = metadata !{i32 786689, metadata !542, metadata !"count", metadata !231, i32 117440682, metadata !247, i32 0, i32 0} ; [ DW_TAG_arg_variable ] [count] [line 170]
!554 = metadata !{i32 786689, metadata !542, metadata !"kind", metadata !231, i32 134217898, metadata !227, i32 0, i32 0} ; [ DW_TAG_arg_variable ] [kind] [line 170]
!555 = metadata !{i32 786478, i32 0, metadata !231, metadata !"cudaMemcpyAsync", metadata !"cudaMemcpyAsync", metadata !"", metadata !231, i32 174, metadata !556, i1 false, i1 true, i32 0, i32 0, null, i32 256, i1 true, i32 (i8*, i8*, i64, i32, %struct.C
!556 = metadata !{i32 786453, i32 0, metadata !"", i32 0, i32 0, i64 0, i64 0, i64 0, i32 0, null, metadata !557, i32 0, i32 0} ; [ DW_TAG_subroutine_type ] [line 0, size 0, align 0, offset 0] [from ]
!557 = metadata !{metadata !234, metadata !95, metadata !96, metadata !247, metadata !227, metadata !418}
!558 = metadata !{metadata !559}
!559 = metadata !{metadata !560, metadata !561, metadata !562, metadata !563, metadata !564}
!560 = metadata !{i32 786689, metadata !555, metadata !"dst", metadata !231, i32 16777390, metadata !95, i32 0, i32 0} ; [ DW_TAG_arg_variable ] [dst] [line 174]
!561 = metadata !{i32 786689, metadata !555, metadata !"src", metadata !231, i32 33554606, metadata !96, i32 0, i32 0} ; [ DW_TAG_arg_variable ] [src] [line 174]
!562 = metadata !{i32 786689, metadata !555, metadata !"count", metadata !231, i32 50331822, metadata !247, i32 0, i32 0} ; [ DW_TAG_arg_variable ] [count] [line 174]
!563 = metadata !{i32 786689, metadata !555, metadata !"kind", metadata !231, i32 67109039, metadata !227, i32 0, i32 0} ; [ DW_TAG_arg_variable ] [kind] [line 175]
!564 = metadata !{i32 786689, metadata !555, metadata !"stream", metadata !231, i32 83886255, metadata !418, i32 0, i32 0} ; [ DW_TAG_arg_variable ] [stream] [line 175]
!565 = metadata !{i32 786478, i32 0, metadata !231, metadata !"cudaMemcpyFromArray", metadata !"cudaMemcpyFromArray", metadata !"", metadata !231, i32 179, metadata !566, i1 false, i1 true, i32 0, i32 0, null, i32 256, i1 true, i32 (i8*, %struct.cudaArra
!566 = metadata !{i32 786453, i32 0, metadata !"", i32 0, i32 0, i64 0, i64 0, i64 0, i32 0, null, metadata !567, i32 0, i32 0} ; [ DW_TAG_subroutine_type ] [line 0, size 0, align 0, offset 0] [from ]
!567 = metadata !{metadata !234, metadata !95, metadata !250, metadata !247, metadata !247, metadata !247, metadata !227}
!568 = metadata !{metadata !569}
!569 = metadata !{metadata !570, metadata !571, metadata !572, metadata !573, metadata !574, metadata !575}
!570 = metadata !{i32 786689, metadata !565, metadata !"dst", metadata !231, i32 16777395, metadata !95, i32 0, i32 0} ; [ DW_TAG_arg_variable ] [dst] [line 179]
!571 = metadata !{i32 786689, metadata !565, metadata !"src", metadata !231, i32 33554611, metadata !250, i32 0, i32 0} ; [ DW_TAG_arg_variable ] [src] [line 179]
!572 = metadata !{i32 786689, metadata !565, metadata !"wOffset", metadata !231, i32 50331827, metadata !247, i32 0, i32 0} ; [ DW_TAG_arg_variable ] [wOffset] [line 179]
!573 = metadata !{i32 786689, metadata !565, metadata !"hOffset", metadata !231, i32 67109044, metadata !247, i32 0, i32 0} ; [ DW_TAG_arg_variable ] [hOffset] [line 180]
!574 = metadata !{i32 786689, metadata !565, metadata !"count", metadata !231, i32 83886260, metadata !247, i32 0, i32 0} ; [ DW_TAG_arg_variable ] [count] [line 180]
!575 = metadata !{i32 786689, metadata !565, metadata !"kind", metadata !231, i32 100663476, metadata !227, i32 0, i32 0} ; [ DW_TAG_arg_variable ] [kind] [line 180]
!576 = metadata !{i32 786478, i32 0, metadata !231, metadata !"cudaMemcpyFromArrayAsync", metadata !"cudaMemcpyFromArrayAsync", metadata !"", metadata !231, i32 184, metadata !577, i1 false, i1 true, i32 0, i32 0, null, i32 256, i1 true, i32 (i8*, %struc
!577 = metadata !{i32 786453, i32 0, metadata !"", i32 0, i32 0, i64 0, i64 0, i64 0, i32 0, null, metadata !578, i32 0, i32 0} ; [ DW_TAG_subroutine_type ] [line 0, size 0, align 0, offset 0] [from ]
!578 = metadata !{metadata !234, metadata !95, metadata !250, metadata !247, metadata !247, metadata !247, metadata !227, metadata !418}
!579 = metadata !{metadata !580}
!580 = metadata !{metadata !581, metadata !582, metadata !583, metadata !584, metadata !585, metadata !586, metadata !587}
!581 = metadata !{i32 786689, metadata !576, metadata !"dst", metadata !231, i32 16777400, metadata !95, i32 0, i32 0} ; [ DW_TAG_arg_variable ] [dst] [line 184]
!582 = metadata !{i32 786689, metadata !576, metadata !"src", metadata !231, i32 33554616, metadata !250, i32 0, i32 0} ; [ DW_TAG_arg_variable ] [src] [line 184]
!583 = metadata !{i32 786689, metadata !576, metadata !"wOffset", metadata !231, i32 50331832, metadata !247, i32 0, i32 0} ; [ DW_TAG_arg_variable ] [wOffset] [line 184]
!584 = metadata !{i32 786689, metadata !576, metadata !"hOffset", metadata !231, i32 67109049, metadata !247, i32 0, i32 0} ; [ DW_TAG_arg_variable ] [hOffset] [line 185]
!585 = metadata !{i32 786689, metadata !576, metadata !"count", metadata !231, i32 83886265, metadata !247, i32 0, i32 0} ; [ DW_TAG_arg_variable ] [count] [line 185]
!586 = metadata !{i32 786689, metadata !576, metadata !"kind", metadata !231, i32 100663481, metadata !227, i32 0, i32 0} ; [ DW_TAG_arg_variable ] [kind] [line 185]
!587 = metadata !{i32 786689, metadata !576, metadata !"stream", metadata !231, i32 117440698, metadata !418, i32 0, i32 0} ; [ DW_TAG_arg_variable ] [stream] [line 186]
!588 = metadata !{i32 786478, i32 0, metadata !231, metadata !"cudaMemcpyFromSymbol", metadata !"cudaMemcpyFromSymbol", metadata !"", metadata !231, i32 190, metadata !589, i1 false, i1 true, i32 0, i32 0, null, i32 256, i1 true, i32 (i8*, i8*, i64, i64,
!589 = metadata !{i32 786453, i32 0, metadata !"", i32 0, i32 0, i64 0, i64 0, i64 0, i32 0, null, metadata !590, i32 0, i32 0} ; [ DW_TAG_subroutine_type ] [line 0, size 0, align 0, offset 0] [from ]
!590 = metadata !{metadata !234, metadata !95, metadata !108, metadata !247, metadata !247, metadata !227}
!591 = metadata !{metadata !592}
!592 = metadata !{metadata !593, metadata !594, metadata !595, metadata !596, metadata !597}
!593 = metadata !{i32 786689, metadata !588, metadata !"dst", metadata !231, i32 16777406, metadata !95, i32 0, i32 0} ; [ DW_TAG_arg_variable ] [dst] [line 190]
!594 = metadata !{i32 786689, metadata !588, metadata !"symbol", metadata !231, i32 33554622, metadata !108, i32 0, i32 0} ; [ DW_TAG_arg_variable ] [symbol] [line 190]
!595 = metadata !{i32 786689, metadata !588, metadata !"count", metadata !231, i32 50331838, metadata !247, i32 0, i32 0} ; [ DW_TAG_arg_variable ] [count] [line 190]
!596 = metadata !{i32 786689, metadata !588, metadata !"offset", metadata !231, i32 67109055, metadata !247, i32 0, i32 0} ; [ DW_TAG_arg_variable ] [offset] [line 191]
!597 = metadata !{i32 786689, metadata !588, metadata !"kind", metadata !231, i32 83886271, metadata !227, i32 0, i32 0} ; [ DW_TAG_arg_variable ] [kind] [line 191]
!598 = metadata !{i32 786478, i32 0, metadata !231, metadata !"cudaMemcpyFromSymbolAsync", metadata !"cudaMemcpyFromSymbolAsync", metadata !"", metadata !231, i32 195, metadata !599, i1 false, i1 true, i32 0, i32 0, null, i32 256, i1 true, i32 (i8*, i8*,
!599 = metadata !{i32 786453, i32 0, metadata !"", i32 0, i32 0, i64 0, i64 0, i64 0, i32 0, null, metadata !600, i32 0, i32 0} ; [ DW_TAG_subroutine_type ] [line 0, size 0, align 0, offset 0] [from ]
!600 = metadata !{metadata !234, metadata !95, metadata !108, metadata !247, metadata !247, metadata !227, metadata !418}
!601 = metadata !{metadata !602}
!602 = metadata !{metadata !603, metadata !604, metadata !605, metadata !606, metadata !607, metadata !608}
!603 = metadata !{i32 786689, metadata !598, metadata !"dst", metadata !231, i32 16777411, metadata !95, i32 0, i32 0} ; [ DW_TAG_arg_variable ] [dst] [line 195]
!604 = metadata !{i32 786689, metadata !598, metadata !"symbol", metadata !231, i32 33554627, metadata !108, i32 0, i32 0} ; [ DW_TAG_arg_variable ] [symbol] [line 195]
!605 = metadata !{i32 786689, metadata !598, metadata !"count", metadata !231, i32 50331843, metadata !247, i32 0, i32 0} ; [ DW_TAG_arg_variable ] [count] [line 195]
!606 = metadata !{i32 786689, metadata !598, metadata !"offset", metadata !231, i32 67109060, metadata !247, i32 0, i32 0} ; [ DW_TAG_arg_variable ] [offset] [line 196]
!607 = metadata !{i32 786689, metadata !598, metadata !"kind", metadata !231, i32 83886276, metadata !227, i32 0, i32 0} ; [ DW_TAG_arg_variable ] [kind] [line 196]
!608 = metadata !{i32 786689, metadata !598, metadata !"stream", metadata !231, i32 100663493, metadata !418, i32 0, i32 0} ; [ DW_TAG_arg_variable ] [stream] [line 197]
!609 = metadata !{i32 786478, i32 0, metadata !231, metadata !"cudaMemcpyPeer", metadata !"cudaMemcpyPeer", metadata !"", metadata !231, i32 201, metadata !610, i1 false, i1 true, i32 0, i32 0, null, i32 256, i1 true, i32 (i8*, i32, i8*, i32, i64)* @cuda
!610 = metadata !{i32 786453, i32 0, metadata !"", i32 0, i32 0, i64 0, i64 0, i64 0, i32 0, null, metadata !611, i32 0, i32 0} ; [ DW_TAG_subroutine_type ] [line 0, size 0, align 0, offset 0] [from ]
!611 = metadata !{metadata !234, metadata !95, metadata !21, metadata !96, metadata !21, metadata !247}
!612 = metadata !{metadata !613}
!613 = metadata !{metadata !614, metadata !615, metadata !616, metadata !617, metadata !618}
!614 = metadata !{i32 786689, metadata !609, metadata !"dst", metadata !231, i32 16777417, metadata !95, i32 0, i32 0} ; [ DW_TAG_arg_variable ] [dst] [line 201]
!615 = metadata !{i32 786689, metadata !609, metadata !"dstDevice", metadata !231, i32 33554633, metadata !21, i32 0, i32 0} ; [ DW_TAG_arg_variable ] [dstDevice] [line 201]
!616 = metadata !{i32 786689, metadata !609, metadata !"src", metadata !231, i32 50331849, metadata !96, i32 0, i32 0} ; [ DW_TAG_arg_variable ] [src] [line 201]
!617 = metadata !{i32 786689, metadata !609, metadata !"srcDevice", metadata !231, i32 67109065, metadata !21, i32 0, i32 0} ; [ DW_TAG_arg_variable ] [srcDevice] [line 201]
!618 = metadata !{i32 786689, metadata !609, metadata !"count", metadata !231, i32 83886281, metadata !247, i32 0, i32 0} ; [ DW_TAG_arg_variable ] [count] [line 201]
!619 = metadata !{i32 786478, i32 0, metadata !231, metadata !"cudaMemcpyPeerAsync", metadata !"cudaMemcpyPeerAsync", metadata !"", metadata !231, i32 206, metadata !620, i1 false, i1 true, i32 0, i32 0, null, i32 256, i1 true, i32 (i8*, i32, i8*, i32, i
!620 = metadata !{i32 786453, i32 0, metadata !"", i32 0, i32 0, i64 0, i64 0, i64 0, i32 0, null, metadata !621, i32 0, i32 0} ; [ DW_TAG_subroutine_type ] [line 0, size 0, align 0, offset 0] [from ]
!621 = metadata !{metadata !234, metadata !95, metadata !21, metadata !96, metadata !21, metadata !247, metadata !418}
!622 = metadata !{metadata !623}
!623 = metadata !{metadata !624, metadata !625, metadata !626, metadata !627, metadata !628, metadata !629}
!624 = metadata !{i32 786689, metadata !619, metadata !"dst", metadata !231, i32 16777422, metadata !95, i32 0, i32 0} ; [ DW_TAG_arg_variable ] [dst] [line 206]
!625 = metadata !{i32 786689, metadata !619, metadata !"dstDevice", metadata !231, i32 33554638, metadata !21, i32 0, i32 0} ; [ DW_TAG_arg_variable ] [dstDevice] [line 206]
!626 = metadata !{i32 786689, metadata !619, metadata !"src", metadata !231, i32 50331854, metadata !96, i32 0, i32 0} ; [ DW_TAG_arg_variable ] [src] [line 206]
!627 = metadata !{i32 786689, metadata !619, metadata !"srcDevice", metadata !231, i32 67109070, metadata !21, i32 0, i32 0} ; [ DW_TAG_arg_variable ] [srcDevice] [line 206]
!628 = metadata !{i32 786689, metadata !619, metadata !"count", metadata !231, i32 83886287, metadata !247, i32 0, i32 0} ; [ DW_TAG_arg_variable ] [count] [line 207]
!629 = metadata !{i32 786689, metadata !619, metadata !"stream", metadata !231, i32 100663503, metadata !418, i32 0, i32 0} ; [ DW_TAG_arg_variable ] [stream] [line 207]
!630 = metadata !{i32 786478, i32 0, metadata !231, metadata !"cudaMemcpyToArray", metadata !"cudaMemcpyToArray", metadata !"", metadata !231, i32 212, metadata !631, i1 false, i1 true, i32 0, i32 0, null, i32 256, i1 true, i32 (%struct.cudaArray*, i64, 
!631 = metadata !{i32 786453, i32 0, metadata !"", i32 0, i32 0, i64 0, i64 0, i64 0, i32 0, null, metadata !632, i32 0, i32 0} ; [ DW_TAG_subroutine_type ] [line 0, size 0, align 0, offset 0] [from ]
!632 = metadata !{metadata !234, metadata !250, metadata !247, metadata !247, metadata !96, metadata !247, metadata !227}
!633 = metadata !{metadata !634}
!634 = metadata !{metadata !635, metadata !636, metadata !637, metadata !638, metadata !639, metadata !640}
!635 = metadata !{i32 786689, metadata !630, metadata !"dst", metadata !231, i32 16777428, metadata !250, i32 0, i32 0} ; [ DW_TAG_arg_variable ] [dst] [line 212]
!636 = metadata !{i32 786689, metadata !630, metadata !"wOffset", metadata !231, i32 33554644, metadata !247, i32 0, i32 0} ; [ DW_TAG_arg_variable ] [wOffset] [line 212]
!637 = metadata !{i32 786689, metadata !630, metadata !"hOffset", metadata !231, i32 50331860, metadata !247, i32 0, i32 0} ; [ DW_TAG_arg_variable ] [hOffset] [line 212]
!638 = metadata !{i32 786689, metadata !630, metadata !"src", metadata !231, i32 67109077, metadata !96, i32 0, i32 0} ; [ DW_TAG_arg_variable ] [src] [line 213]
!639 = metadata !{i32 786689, metadata !630, metadata !"count", metadata !231, i32 83886293, metadata !247, i32 0, i32 0} ; [ DW_TAG_arg_variable ] [count] [line 213]
!640 = metadata !{i32 786689, metadata !630, metadata !"kind", metadata !231, i32 100663509, metadata !227, i32 0, i32 0} ; [ DW_TAG_arg_variable ] [kind] [line 213]
!641 = metadata !{i32 786478, i32 0, metadata !231, metadata !"cudaMemcpyToArrayAsync", metadata !"cudaMemcpyToArrayAsync", metadata !"", metadata !231, i32 217, metadata !642, i1 false, i1 true, i32 0, i32 0, null, i32 256, i1 true, i32 (%struct.cudaArr
!642 = metadata !{i32 786453, i32 0, metadata !"", i32 0, i32 0, i64 0, i64 0, i64 0, i32 0, null, metadata !643, i32 0, i32 0} ; [ DW_TAG_subroutine_type ] [line 0, size 0, align 0, offset 0] [from ]
!643 = metadata !{metadata !234, metadata !250, metadata !247, metadata !247, metadata !96, metadata !247, metadata !227, metadata !418}
!644 = metadata !{metadata !645}
!645 = metadata !{metadata !646, metadata !647, metadata !648, metadata !649, metadata !650, metadata !651, metadata !652}
!646 = metadata !{i32 786689, metadata !641, metadata !"dst", metadata !231, i32 16777433, metadata !250, i32 0, i32 0} ; [ DW_TAG_arg_variable ] [dst] [line 217]
!647 = metadata !{i32 786689, metadata !641, metadata !"wOffset", metadata !231, i32 33554649, metadata !247, i32 0, i32 0} ; [ DW_TAG_arg_variable ] [wOffset] [line 217]
!648 = metadata !{i32 786689, metadata !641, metadata !"hOffset", metadata !231, i32 50331865, metadata !247, i32 0, i32 0} ; [ DW_TAG_arg_variable ] [hOffset] [line 217]
!649 = metadata !{i32 786689, metadata !641, metadata !"src", metadata !231, i32 67109082, metadata !96, i32 0, i32 0} ; [ DW_TAG_arg_variable ] [src] [line 218]
!650 = metadata !{i32 786689, metadata !641, metadata !"count", metadata !231, i32 83886298, metadata !247, i32 0, i32 0} ; [ DW_TAG_arg_variable ] [count] [line 218]
!651 = metadata !{i32 786689, metadata !641, metadata !"kind", metadata !231, i32 100663514, metadata !227, i32 0, i32 0} ; [ DW_TAG_arg_variable ] [kind] [line 218]
!652 = metadata !{i32 786689, metadata !641, metadata !"stream", metadata !231, i32 117440731, metadata !418, i32 0, i32 0} ; [ DW_TAG_arg_variable ] [stream] [line 219]
!653 = metadata !{i32 786478, i32 0, metadata !231, metadata !"cudaMemcpyToSymbol", metadata !"cudaMemcpyToSymbol", metadata !"", metadata !231, i32 223, metadata !654, i1 false, i1 true, i32 0, i32 0, null, i32 256, i1 true, i32 (i8*, i8*, i64, i64, i32
!654 = metadata !{i32 786453, i32 0, metadata !"", i32 0, i32 0, i64 0, i64 0, i64 0, i32 0, null, metadata !655, i32 0, i32 0} ; [ DW_TAG_subroutine_type ] [line 0, size 0, align 0, offset 0] [from ]
!655 = metadata !{metadata !234, metadata !26, metadata !96, metadata !247, metadata !247, metadata !227}
!656 = metadata !{metadata !657}
!657 = metadata !{metadata !658, metadata !659, metadata !660, metadata !661, metadata !662}
!658 = metadata !{i32 786689, metadata !653, metadata !"symbol", metadata !231, i32 16777439, metadata !26, i32 0, i32 0} ; [ DW_TAG_arg_variable ] [symbol] [line 223]
!659 = metadata !{i32 786689, metadata !653, metadata !"src", metadata !231, i32 33554655, metadata !96, i32 0, i32 0} ; [ DW_TAG_arg_variable ] [src] [line 223]
!660 = metadata !{i32 786689, metadata !653, metadata !"count", metadata !231, i32 50331871, metadata !247, i32 0, i32 0} ; [ DW_TAG_arg_variable ] [count] [line 223]
!661 = metadata !{i32 786689, metadata !653, metadata !"offset", metadata !231, i32 67109088, metadata !247, i32 0, i32 0} ; [ DW_TAG_arg_variable ] [offset] [line 224]
!662 = metadata !{i32 786689, metadata !653, metadata !"kind", metadata !231, i32 83886304, metadata !227, i32 0, i32 0} ; [ DW_TAG_arg_variable ] [kind] [line 224]
!663 = metadata !{i32 786478, i32 0, metadata !231, metadata !"cudaMemcpyToSymbolAsync", metadata !"cudaMemcpyToSymbolAsync", metadata !"", metadata !231, i32 229, metadata !664, i1 false, i1 true, i32 0, i32 0, null, i32 256, i1 true, i32 (i8*, i8*, i64
!664 = metadata !{i32 786453, i32 0, metadata !"", i32 0, i32 0, i64 0, i64 0, i64 0, i32 0, null, metadata !665, i32 0, i32 0} ; [ DW_TAG_subroutine_type ] [line 0, size 0, align 0, offset 0] [from ]
!665 = metadata !{metadata !234, metadata !108, metadata !96, metadata !247, metadata !247, metadata !227, metadata !418}
!666 = metadata !{metadata !667}
!667 = metadata !{metadata !668, metadata !669, metadata !670, metadata !671, metadata !672, metadata !673}
!668 = metadata !{i32 786689, metadata !663, metadata !"symbol", metadata !231, i32 16777445, metadata !108, i32 0, i32 0} ; [ DW_TAG_arg_variable ] [symbol] [line 229]
!669 = metadata !{i32 786689, metadata !663, metadata !"src", metadata !231, i32 33554661, metadata !96, i32 0, i32 0} ; [ DW_TAG_arg_variable ] [src] [line 229]
!670 = metadata !{i32 786689, metadata !663, metadata !"count", metadata !231, i32 50331877, metadata !247, i32 0, i32 0} ; [ DW_TAG_arg_variable ] [count] [line 229]
!671 = metadata !{i32 786689, metadata !663, metadata !"offset", metadata !231, i32 67109093, metadata !247, i32 0, i32 0} ; [ DW_TAG_arg_variable ] [offset] [line 229]
!672 = metadata !{i32 786689, metadata !663, metadata !"kind", metadata !231, i32 83886310, metadata !227, i32 0, i32 0} ; [ DW_TAG_arg_variable ] [kind] [line 230]
!673 = metadata !{i32 786689, metadata !663, metadata !"stream", metadata !231, i32 100663526, metadata !418, i32 0, i32 0} ; [ DW_TAG_arg_variable ] [stream] [line 230]
!674 = metadata !{i32 786478, i32 0, metadata !231, metadata !"cudaMemGetInfo", metadata !"cudaMemGetInfo", metadata !"", metadata !231, i32 234, metadata !675, i1 false, i1 true, i32 0, i32 0, null, i32 256, i1 true, i32 (i64*, i64*)* @cudaMemGetInfo, n
!675 = metadata !{i32 786453, i32 0, metadata !"", i32 0, i32 0, i64 0, i64 0, i64 0, i32 0, null, metadata !676, i32 0, i32 0} ; [ DW_TAG_subroutine_type ] [line 0, size 0, align 0, offset 0] [from ]
!676 = metadata !{metadata !234, metadata !285, metadata !285}
!677 = metadata !{metadata !678}
!678 = metadata !{metadata !679, metadata !680}
!679 = metadata !{i32 786689, metadata !674, metadata !"free", metadata !231, i32 16777450, metadata !285, i32 0, i32 0} ; [ DW_TAG_arg_variable ] [free] [line 234]
!680 = metadata !{i32 786689, metadata !674, metadata !"total", metadata !231, i32 33554666, metadata !285, i32 0, i32 0} ; [ DW_TAG_arg_variable ] [total] [line 234]
!681 = metadata !{i32 786478, i32 0, metadata !231, metadata !"cudaMemset", metadata !"cudaMemset", metadata !"", metadata !231, i32 238, metadata !682, i1 false, i1 true, i32 0, i32 0, null, i32 256, i1 true, i32 (i8*, i32, i64)* @cudaMemset, null, null
!682 = metadata !{i32 786453, i32 0, metadata !"", i32 0, i32 0, i64 0, i64 0, i64 0, i32 0, null, metadata !683, i32 0, i32 0} ; [ DW_TAG_subroutine_type ] [line 0, size 0, align 0, offset 0] [from ]
!683 = metadata !{metadata !234, metadata !95, metadata !21, metadata !247}
!684 = metadata !{metadata !685}
!685 = metadata !{metadata !686, metadata !687, metadata !688}
!686 = metadata !{i32 786689, metadata !681, metadata !"devPtr", metadata !231, i32 16777454, metadata !95, i32 0, i32 0} ; [ DW_TAG_arg_variable ] [devPtr] [line 238]
!687 = metadata !{i32 786689, metadata !681, metadata !"value", metadata !231, i32 33554670, metadata !21, i32 0, i32 0} ; [ DW_TAG_arg_variable ] [value] [line 238]
!688 = metadata !{i32 786689, metadata !681, metadata !"count", metadata !231, i32 50331886, metadata !247, i32 0, i32 0} ; [ DW_TAG_arg_variable ] [count] [line 238]
!689 = metadata !{i32 786478, i32 0, metadata !231, metadata !"cudaMemset2D", metadata !"cudaMemset2D", metadata !"", metadata !231, i32 243, metadata !690, i1 false, i1 true, i32 0, i32 0, null, i32 256, i1 true, i32 (i8*, i64, i32, i64, i64)* @cudaMems
!690 = metadata !{i32 786453, i32 0, metadata !"", i32 0, i32 0, i64 0, i64 0, i64 0, i32 0, null, metadata !691, i32 0, i32 0} ; [ DW_TAG_subroutine_type ] [line 0, size 0, align 0, offset 0] [from ]
!691 = metadata !{metadata !234, metadata !95, metadata !247, metadata !21, metadata !247, metadata !247}
!692 = metadata !{metadata !693}
!693 = metadata !{metadata !694, metadata !695, metadata !696, metadata !697, metadata !698}
!694 = metadata !{i32 786689, metadata !689, metadata !"devPtr", metadata !231, i32 16777459, metadata !95, i32 0, i32 0} ; [ DW_TAG_arg_variable ] [devPtr] [line 243]
!695 = metadata !{i32 786689, metadata !689, metadata !"pitch", metadata !231, i32 33554675, metadata !247, i32 0, i32 0} ; [ DW_TAG_arg_variable ] [pitch] [line 243]
!696 = metadata !{i32 786689, metadata !689, metadata !"value", metadata !231, i32 50331891, metadata !21, i32 0, i32 0} ; [ DW_TAG_arg_variable ] [value] [line 243]
!697 = metadata !{i32 786689, metadata !689, metadata !"width", metadata !231, i32 67109108, metadata !247, i32 0, i32 0} ; [ DW_TAG_arg_variable ] [width] [line 244]
!698 = metadata !{i32 786689, metadata !689, metadata !"height", metadata !231, i32 83886324, metadata !247, i32 0, i32 0} ; [ DW_TAG_arg_variable ] [height] [line 244]
!699 = metadata !{i32 786478, i32 0, metadata !231, metadata !"cudaMemset2DAsync", metadata !"cudaMemset2DAsync", metadata !"", metadata !231, i32 248, metadata !700, i1 false, i1 true, i32 0, i32 0, null, i32 256, i1 true, i32 (i8*, i64, i32, i64, i64, 
!700 = metadata !{i32 786453, i32 0, metadata !"", i32 0, i32 0, i64 0, i64 0, i64 0, i32 0, null, metadata !701, i32 0, i32 0} ; [ DW_TAG_subroutine_type ] [line 0, size 0, align 0, offset 0] [from ]
!701 = metadata !{metadata !234, metadata !95, metadata !247, metadata !21, metadata !247, metadata !247, metadata !418}
!702 = metadata !{metadata !703}
!703 = metadata !{metadata !704, metadata !705, metadata !706, metadata !707, metadata !708, metadata !709}
!704 = metadata !{i32 786689, metadata !699, metadata !"devPtr", metadata !231, i32 16777464, metadata !95, i32 0, i32 0} ; [ DW_TAG_arg_variable ] [devPtr] [line 248]
!705 = metadata !{i32 786689, metadata !699, metadata !"pitch", metadata !231, i32 33554680, metadata !247, i32 0, i32 0} ; [ DW_TAG_arg_variable ] [pitch] [line 248]
!706 = metadata !{i32 786689, metadata !699, metadata !"value", metadata !231, i32 50331896, metadata !21, i32 0, i32 0} ; [ DW_TAG_arg_variable ] [value] [line 248]
!707 = metadata !{i32 786689, metadata !699, metadata !"width", metadata !231, i32 67109113, metadata !247, i32 0, i32 0} ; [ DW_TAG_arg_variable ] [width] [line 249]
!708 = metadata !{i32 786689, metadata !699, metadata !"height", metadata !231, i32 83886329, metadata !247, i32 0, i32 0} ; [ DW_TAG_arg_variable ] [height] [line 249]
!709 = metadata !{i32 786689, metadata !699, metadata !"stream", metadata !231, i32 100663545, metadata !418, i32 0, i32 0} ; [ DW_TAG_arg_variable ] [stream] [line 249]
!710 = metadata !{i32 786478, i32 0, metadata !231, metadata !"cudaMemset3D", metadata !"cudaMemset3D", metadata !"", metadata !231, i32 253, metadata !711, i1 false, i1 true, i32 0, i32 0, null, i32 256, i1 true, i32 (%struct.cudaPitchedPtr*, i32, %stru
!711 = metadata !{i32 786453, i32 0, metadata !"", i32 0, i32 0, i64 0, i64 0, i64 0, i32 0, null, metadata !712, i32 0, i32 0} ; [ DW_TAG_subroutine_type ] [line 0, size 0, align 0, offset 0] [from ]
!712 = metadata !{metadata !234, metadata !336, metadata !21, metadata !244}
!713 = metadata !{metadata !714}
!714 = metadata !{metadata !715, metadata !716, metadata !717}
!715 = metadata !{i32 786689, metadata !710, metadata !"pitchedDevPtr", metadata !231, i32 16777469, metadata !336, i32 0, i32 0} ; [ DW_TAG_arg_variable ] [pitchedDevPtr] [line 253]
!716 = metadata !{i32 786689, metadata !710, metadata !"value", metadata !231, i32 33554685, metadata !21, i32 0, i32 0} ; [ DW_TAG_arg_variable ] [value] [line 253]
!717 = metadata !{i32 786689, metadata !710, metadata !"extent", metadata !231, i32 50331902, metadata !244, i32 0, i32 0} ; [ DW_TAG_arg_variable ] [extent] [line 254]
!718 = metadata !{i32 786478, i32 0, metadata !231, metadata !"cudaMemset3DAsync", metadata !"cudaMemset3DAsync", metadata !"", metadata !231, i32 258, metadata !719, i1 false, i1 true, i32 0, i32 0, null, i32 256, i1 true, i32 (%struct.cudaPitchedPtr*, 
!719 = metadata !{i32 786453, i32 0, metadata !"", i32 0, i32 0, i64 0, i64 0, i64 0, i32 0, null, metadata !720, i32 0, i32 0} ; [ DW_TAG_subroutine_type ] [line 0, size 0, align 0, offset 0] [from ]
!720 = metadata !{metadata !234, metadata !336, metadata !21, metadata !244, metadata !418}
!721 = metadata !{metadata !722}
!722 = metadata !{metadata !723, metadata !724, metadata !725, metadata !726}
!723 = metadata !{i32 786689, metadata !718, metadata !"pitchedDevPtr", metadata !231, i32 16777474, metadata !336, i32 0, i32 0} ; [ DW_TAG_arg_variable ] [pitchedDevPtr] [line 258]
!724 = metadata !{i32 786689, metadata !718, metadata !"value", metadata !231, i32 33554690, metadata !21, i32 0, i32 0} ; [ DW_TAG_arg_variable ] [value] [line 258]
!725 = metadata !{i32 786689, metadata !718, metadata !"extent", metadata !231, i32 50331907, metadata !244, i32 0, i32 0} ; [ DW_TAG_arg_variable ] [extent] [line 259]
!726 = metadata !{i32 786689, metadata !718, metadata !"stream", metadata !231, i32 67109123, metadata !418, i32 0, i32 0} ; [ DW_TAG_arg_variable ] [stream] [line 259]
!727 = metadata !{i32 786478, i32 0, metadata !231, metadata !"cudaMemsetAsync", metadata !"cudaMemsetAsync", metadata !"", metadata !231, i32 263, metadata !728, i1 false, i1 true, i32 0, i32 0, null, i32 256, i1 true, i32 (i8*, i32, i64, %struct.CUstre
!728 = metadata !{i32 786453, i32 0, metadata !"", i32 0, i32 0, i64 0, i64 0, i64 0, i32 0, null, metadata !729, i32 0, i32 0} ; [ DW_TAG_subroutine_type ] [line 0, size 0, align 0, offset 0] [from ]
!729 = metadata !{metadata !234, metadata !95, metadata !21, metadata !247, metadata !418}
!730 = metadata !{metadata !731}
!731 = metadata !{metadata !732, metadata !733, metadata !734, metadata !735}
!732 = metadata !{i32 786689, metadata !727, metadata !"devPtr", metadata !231, i32 16777479, metadata !95, i32 0, i32 0} ; [ DW_TAG_arg_variable ] [devPtr] [line 263]
!733 = metadata !{i32 786689, metadata !727, metadata !"value", metadata !231, i32 33554695, metadata !21, i32 0, i32 0} ; [ DW_TAG_arg_variable ] [value] [line 263]
!734 = metadata !{i32 786689, metadata !727, metadata !"count", metadata !231, i32 50331911, metadata !247, i32 0, i32 0} ; [ DW_TAG_arg_variable ] [count] [line 263]
!735 = metadata !{i32 786689, metadata !727, metadata !"stream", metadata !231, i32 67109127, metadata !418, i32 0, i32 0} ; [ DW_TAG_arg_variable ] [stream] [line 263]
!736 = metadata !{i32 7, i32 0, metadata !737, null}
!737 = metadata !{i32 786443, metadata !15, i32 6, i32 0, metadata !16, i32 0} ; [ DW_TAG_lexical_block ] [/home/ibriggs/fairytale/race_01/race_01.cpp]
!738 = metadata !{i32 10, i32 0, metadata !737, null}
!739 = metadata !{i32 11, i32 0, metadata !737, null}
!740 = metadata !{i32 13, i32 0, metadata !737, null}
!741 = metadata !{i32 14, i32 0, metadata !742, null}
!742 = metadata !{i32 786443, metadata !737, i32 13, i32 0, metadata !16, i32 1} ; [ DW_TAG_lexical_block ] [/home/ibriggs/fairytale/race_01/race_01.cpp]
!743 = metadata !{i32 15, i32 0, metadata !744, null}
!744 = metadata !{i32 786443, metadata !742, i32 14, i32 0, metadata !16, i32 2} ; [ DW_TAG_lexical_block ] [/home/ibriggs/fairytale/race_01/race_01.cpp]
!745 = metadata !{i32 16, i32 0, metadata !744, null}
!746 = metadata !{i32 18, i32 0, metadata !737, null}
!747 = metadata !{i32 22, i32 0, metadata !748, null}
!748 = metadata !{i32 786443, metadata !22, i32 20, i32 0, metadata !16, i32 3} ; [ DW_TAG_lexical_block ] [/home/ibriggs/fairytale/race_01/race_01.cpp]
!749 = metadata !{i32 23, i32 0, metadata !748, null}
!750 = metadata !{i32 24, i32 0, metadata !748, null}
!751 = metadata !{i32 25, i32 0, metadata !748, null}
!752 = metadata !{i32 26, i32 0, metadata !748, null}
!753 = metadata !{i32 29, i32 0, metadata !748, null}
!754 = metadata !{i32 29, i32 0, metadata !755, null}
!755 = metadata !{i32 786443, metadata !748, i32 29, i32 0, metadata !16, i32 4} ; [ DW_TAG_lexical_block ] [/home/ibriggs/fairytale/race_01/race_01.cpp]
!756 = metadata !{i32 30, i32 0, metadata !748, null}
!757 = metadata !{i32 30, i32 0, metadata !758, null}
!758 = metadata !{i32 786443, metadata !748, i32 30, i32 0, metadata !16, i32 5} ; [ DW_TAG_lexical_block ] [/home/ibriggs/fairytale/race_01/race_01.cpp]
!759 = metadata !{i32 31, i32 0, metadata !748, null}
!760 = metadata !{i32 31, i32 0, metadata !761, null}
!761 = metadata !{i32 786443, metadata !748, i32 31, i32 0, metadata !16, i32 6} ; [ DW_TAG_lexical_block ] [/home/ibriggs/fairytale/race_01/race_01.cpp]
!762 = metadata !{i32 34, i32 0, metadata !763, null}
!763 = metadata !{i32 786443, metadata !748, i32 34, i32 0, metadata !16, i32 7} ; [ DW_TAG_lexical_block ] [/home/ibriggs/fairytale/race_01/race_01.cpp]
!764 = metadata !{i32 35, i32 0, metadata !765, null}
!765 = metadata !{i32 786443, metadata !763, i32 34, i32 0, metadata !16, i32 8} ; [ DW_TAG_lexical_block ] [/home/ibriggs/fairytale/race_01/race_01.cpp]
!766 = metadata !{i32 36, i32 0, metadata !767, null}
!767 = metadata !{i32 786443, metadata !765, i32 35, i32 0, metadata !16, i32 9} ; [ DW_TAG_lexical_block ] [/home/ibriggs/fairytale/race_01/race_01.cpp]
!768 = metadata !{i32 37, i32 0, metadata !767, null}
!769 = metadata !{i32 38, i32 0, metadata !770, null}
!770 = metadata !{i32 786443, metadata !765, i32 37, i32 0, metadata !16, i32 10} ; [ DW_TAG_lexical_block ] [/home/ibriggs/fairytale/race_01/race_01.cpp]
!771 = metadata !{i32 41, i32 0, metadata !748, null}
!772 = metadata !{i32 45, i32 0, metadata !773, null}
!773 = metadata !{i32 786443, metadata !748, i32 45, i32 0, metadata !16, i32 11} ; [ DW_TAG_lexical_block ] [/home/ibriggs/fairytale/race_01/race_01.cpp]
!774 = metadata !{i32 46, i32 0, metadata !775, null}
!775 = metadata !{i32 786443, metadata !773, i32 45, i32 0, metadata !16, i32 12} ; [ DW_TAG_lexical_block ] [/home/ibriggs/fairytale/race_01/race_01.cpp]
!776 = metadata !{i32 47, i32 0, metadata !777, null}
!777 = metadata !{i32 786443, metadata !775, i32 46, i32 0, metadata !16, i32 13} ; [ DW_TAG_lexical_block ] [/home/ibriggs/fairytale/race_01/race_01.cpp]
!778 = metadata !{i32 48, i32 0, metadata !777, null}
!779 = metadata !{i32 49, i32 0, metadata !780, null}
!780 = metadata !{i32 786443, metadata !775, i32 48, i32 0, metadata !16, i32 14} ; [ DW_TAG_lexical_block ] [/home/ibriggs/fairytale/race_01/race_01.cpp]
!781 = metadata !{i32 52, i32 0, metadata !748, null}
!782 = metadata !{i32 53, i32 0, metadata !783, null}
!783 = metadata !{i32 786443, metadata !748, i32 53, i32 0, metadata !16, i32 15} ; [ DW_TAG_lexical_block ] [/home/ibriggs/fairytale/race_01/race_01.cpp]
!784 = metadata !{i32 55, i32 0, metadata !783, null}
!785 = metadata !{i32 57, i32 0, metadata !748, null}
!786 = metadata !{i32 60, i32 0, metadata !787, null}
!787 = metadata !{i32 786443, metadata !748, i32 60, i32 0, metadata !16, i32 16} ; [ DW_TAG_lexical_block ] [/home/ibriggs/fairytale/race_01/race_01.cpp]
!788 = metadata !{i32 61, i32 0, metadata !789, null}
!789 = metadata !{i32 786443, metadata !790, i32 61, i32 0, metadata !16, i32 18} ; [ DW_TAG_lexical_block ] [/home/ibriggs/fairytale/race_01/race_01.cpp]
!790 = metadata !{i32 786443, metadata !787, i32 60, i32 0, metadata !16, i32 17} ; [ DW_TAG_lexical_block ] [/home/ibriggs/fairytale/race_01/race_01.cpp]
!791 = metadata !{i32 62, i32 0, metadata !792, null}
!792 = metadata !{i32 786443, metadata !789, i32 61, i32 0, metadata !16, i32 19} ; [ DW_TAG_lexical_block ] [/home/ibriggs/fairytale/race_01/race_01.cpp]
!793 = metadata !{i32 64, i32 0, metadata !790, null}
!794 = metadata !{i32 68, i32 0, metadata !748, null}
!795 = metadata !{i32 69, i32 0, metadata !748, null}
!796 = metadata !{i32 70, i32 0, metadata !748, null}
!797 = metadata !{i32 71, i32 0, metadata !748, null}
!798 = metadata !{i32 419, i32 0, metadata !28, null}
!799 = metadata !{i32 419, i32 0, metadata !70, null}
!800 = metadata !{i32 419, i32 0, metadata !801, null}
!801 = metadata !{i32 786443, metadata !70, i32 419, i32 0, metadata !29, i32 20} ; [ DW_TAG_lexical_block ] [/home/ibriggs/fairytale/race_01//home/ibriggs/Gklee/Gklee/include/cuda/vector_types.h]
!802 = metadata !{i32 13, i32 0, metadata !803, null}
!803 = metadata !{i32 786443, metadata !80, i32 12, i32 0, metadata !81, i32 0} ; [ DW_TAG_lexical_block ] [/home/ibriggs/Gklee/Gklee/runtime/Intrinsic/klee_div_zero_check.c]
!804 = metadata !{i32 14, i32 0, metadata !803, null}
!805 = metadata !{i32 15, i32 0, metadata !803, null}
!806 = metadata !{i32 16, i32 0, metadata !106, null}
!807 = metadata !{i32 17, i32 0, metadata !106, null}
!808 = metadata !{metadata !"omnipotent char", metadata !809}
!809 = metadata !{metadata !"Simple C/C++ TBAA"}
!810 = metadata !{i32 18, i32 0, metadata !106, null}
!811 = metadata !{i32 14, i32 0, metadata !140, null}
!812 = metadata !{i32 15, i32 0, metadata !140, null}
!813 = metadata !{i32 16, i32 0, metadata !140, null}
!814 = metadata !{i32 26, i32 0, metadata !815, null}
!815 = metadata !{i32 786443, metadata !230, i32 25, i32 0, metadata !231, i32 0} ; [ DW_TAG_lexical_block ] [/home/ibriggs/Gklee/Gklee/runtime/CudaRuntime/cudaMemManage.cpp]
!816 = metadata !{i32 30, i32 0, metadata !817, null}
!817 = metadata !{i32 786443, metadata !258, i32 29, i32 0, metadata !231, i32 1} ; [ DW_TAG_lexical_block ] [/home/ibriggs/Gklee/Gklee/runtime/CudaRuntime/cudaMemManage.cpp]
!818 = metadata !{i32 31, i32 0, metadata !817, null}
!819 = metadata !{i32 35, i32 0, metadata !820, null}
!820 = metadata !{i32 786443, metadata !264, i32 34, i32 0, metadata !231, i32 2} ; [ DW_TAG_lexical_block ] [/home/ibriggs/Gklee/Gklee/runtime/CudaRuntime/cudaMemManage.cpp]
!821 = metadata !{i32 36, i32 0, metadata !820, null}
!822 = metadata !{i32 40, i32 0, metadata !823, null}
!823 = metadata !{i32 786443, metadata !270, i32 39, i32 0, metadata !231, i32 3} ; [ DW_TAG_lexical_block ] [/home/ibriggs/Gklee/Gklee/runtime/CudaRuntime/cudaMemManage.cpp]
!824 = metadata !{i32 41, i32 0, metadata !823, null}
!825 = metadata !{i32 45, i32 0, metadata !826, null}
!826 = metadata !{i32 786443, metadata !274, i32 44, i32 0, metadata !231, i32 4} ; [ DW_TAG_lexical_block ] [/home/ibriggs/Gklee/Gklee/runtime/CudaRuntime/cudaMemManage.cpp]
!827 = metadata !{i32 49, i32 0, metadata !828, null}
!828 = metadata !{i32 786443, metadata !282, i32 48, i32 0, metadata !231, i32 5} ; [ DW_TAG_lexical_block ] [/home/ibriggs/Gklee/Gklee/runtime/CudaRuntime/cudaMemManage.cpp]
!829 = metadata !{i32 53, i32 0, metadata !830, null}
!830 = metadata !{i32 786443, metadata !290, i32 52, i32 0, metadata !231, i32 6} ; [ DW_TAG_lexical_block ] [/home/ibriggs/Gklee/Gklee/runtime/CudaRuntime/cudaMemManage.cpp]
!831 = metadata !{i32 57, i32 0, metadata !832, null}
!832 = metadata !{i32 786443, metadata !298, i32 56, i32 0, metadata !231, i32 7} ; [ DW_TAG_lexical_block ] [/home/ibriggs/Gklee/Gklee/runtime/CudaRuntime/cudaMemManage.cpp]
!833 = metadata !{i32 61, i32 0, metadata !834, null}
!834 = metadata !{i32 786443, metadata !306, i32 60, i32 0, metadata !231, i32 8} ; [ DW_TAG_lexical_block ] [/home/ibriggs/Gklee/Gklee/runtime/CudaRuntime/cudaMemManage.cpp]
!835 = metadata !{i32 65, i32 0, metadata !836, null}
!836 = metadata !{i32 786443, metadata !313, i32 64, i32 0, metadata !231, i32 9} ; [ DW_TAG_lexical_block ] [/home/ibriggs/Gklee/Gklee/runtime/CudaRuntime/cudaMemManage.cpp]
!837 = metadata !{i32 69, i32 0, metadata !838, null}
!838 = metadata !{i32 786443, metadata !321, i32 68, i32 0, metadata !231, i32 10} ; [ DW_TAG_lexical_block ] [/home/ibriggs/Gklee/Gklee/runtime/CudaRuntime/cudaMemManage.cpp]
!839 = metadata !{i32 73, i32 0, metadata !840, null}
!840 = metadata !{i32 786443, metadata !325, i32 72, i32 0, metadata !231, i32 11} ; [ DW_TAG_lexical_block ] [/home/ibriggs/Gklee/Gklee/runtime/CudaRuntime/cudaMemManage.cpp]
!841 = metadata !{i32 74, i32 0, metadata !840, null}
!842 = metadata !{metadata !"any pointer", metadata !808}
!843 = metadata !{i32 75, i32 0, metadata !840, null}
!844 = metadata !{i32 77, i32 0, metadata !840, null}
!845 = metadata !{i32 81, i32 0, metadata !846, null}
!846 = metadata !{i32 786443, metadata !332, i32 80, i32 0, metadata !231, i32 12} ; [ DW_TAG_lexical_block ] [/home/ibriggs/Gklee/Gklee/runtime/CudaRuntime/cudaMemManage.cpp]
!847 = metadata !{i32 86, i32 0, metadata !848, null}
!848 = metadata !{i32 786443, metadata !346, i32 85, i32 0, metadata !231, i32 13} ; [ DW_TAG_lexical_block ] [/home/ibriggs/Gklee/Gklee/runtime/CudaRuntime/cudaMemManage.cpp]
!849 = metadata !{i32 91, i32 0, metadata !850, null}
!850 = metadata !{i32 786443, metadata !356, i32 90, i32 0, metadata !231, i32 14} ; [ DW_TAG_lexical_block ] [/home/ibriggs/Gklee/Gklee/runtime/CudaRuntime/cudaMemManage.cpp]
!851 = metadata !{i32 95, i32 0, metadata !852, null}
!852 = metadata !{i32 786443, metadata !366, i32 94, i32 0, metadata !231, i32 15} ; [ DW_TAG_lexical_block ] [/home/ibriggs/Gklee/Gklee/runtime/CudaRuntime/cudaMemManage.cpp]
!853 = metadata !{i32 96, i32 0, metadata !852, null}
!854 = metadata !{i32 97, i32 0, metadata !852, null}
!855 = metadata !{i32 99, i32 0, metadata !852, null}
!856 = metadata !{i32 103, i32 0, metadata !857, null}
!857 = metadata !{i32 786443, metadata !371, i32 102, i32 0, metadata !231, i32 16} ; [ DW_TAG_lexical_block ] [/home/ibriggs/Gklee/Gklee/runtime/CudaRuntime/cudaMemManage.cpp]
!858 = metadata !{i32 108, i32 0, metadata !859, null}
!859 = metadata !{i32 786443, metadata !380, i32 106, i32 0, metadata !231, i32 17} ; [ DW_TAG_lexical_block ] [/home/ibriggs/Gklee/Gklee/runtime/CudaRuntime/cudaMemManage.cpp]
!860 = metadata !{i32 113, i32 0, metadata !861, null}
!861 = metadata !{i32 786443, metadata !389, i32 112, i32 0, metadata !231, i32 18} ; [ DW_TAG_lexical_block ] [/home/ibriggs/Gklee/Gklee/runtime/CudaRuntime/cudaMemManage.cpp]
!862 = metadata !{i32 119, i32 0, metadata !863, null}
!863 = metadata !{i32 786443, metadata !401, i32 118, i32 0, metadata !231, i32 19} ; [ DW_TAG_lexical_block ] [/home/ibriggs/Gklee/Gklee/runtime/CudaRuntime/cudaMemManage.cpp]
!864 = metadata !{i32 125, i32 0, metadata !865, null}
!865 = metadata !{i32 786443, metadata !415, i32 124, i32 0, metadata !231, i32 20} ; [ DW_TAG_lexical_block ] [/home/ibriggs/Gklee/Gklee/runtime/CudaRuntime/cudaMemManage.cpp]
!866 = metadata !{i32 131, i32 0, metadata !867, null}
!867 = metadata !{i32 786443, metadata !431, i32 130, i32 0, metadata !231, i32 21} ; [ DW_TAG_lexical_block ] [/home/ibriggs/Gklee/Gklee/runtime/CudaRuntime/cudaMemManage.cpp]
!868 = metadata !{i32 137, i32 0, metadata !869, null}
!869 = metadata !{i32 786443, metadata !444, i32 136, i32 0, metadata !231, i32 22} ; [ DW_TAG_lexical_block ] [/home/ibriggs/Gklee/Gklee/runtime/CudaRuntime/cudaMemManage.cpp]
!870 = metadata !{i32 143, i32 0, metadata !871, null}
!871 = metadata !{i32 786443, metadata !458, i32 142, i32 0, metadata !231, i32 23} ; [ DW_TAG_lexical_block ] [/home/ibriggs/Gklee/Gklee/runtime/CudaRuntime/cudaMemManage.cpp]
!872 = metadata !{i32 149, i32 0, metadata !873, null}
!873 = metadata !{i32 786443, metadata !471, i32 148, i32 0, metadata !231, i32 24} ; [ DW_TAG_lexical_block ] [/home/ibriggs/Gklee/Gklee/runtime/CudaRuntime/cudaMemManage.cpp]
!874 = metadata !{i32 153, i32 0, metadata !875, null}
!875 = metadata !{i32 786443, metadata !485, i32 152, i32 0, metadata !231, i32 25} ; [ DW_TAG_lexical_block ] [/home/ibriggs/Gklee/Gklee/runtime/CudaRuntime/cudaMemManage.cpp]
!876 = metadata !{i32 157, i32 0, metadata !877, null}
!877 = metadata !{i32 786443, metadata !509, i32 156, i32 0, metadata !231, i32 26} ; [ DW_TAG_lexical_block ] [/home/ibriggs/Gklee/Gklee/runtime/CudaRuntime/cudaMemManage.cpp]
!878 = metadata !{i32 161, i32 0, metadata !879, null}
!879 = metadata !{i32 786443, metadata !516, i32 160, i32 0, metadata !231, i32 27} ; [ DW_TAG_lexical_block ] [/home/ibriggs/Gklee/Gklee/runtime/CudaRuntime/cudaMemManage.cpp]
!880 = metadata !{i32 165, i32 0, metadata !881, null}
!881 = metadata !{i32 786443, metadata !535, i32 164, i32 0, metadata !231, i32 28} ; [ DW_TAG_lexical_block ] [/home/ibriggs/Gklee/Gklee/runtime/CudaRuntime/cudaMemManage.cpp]
!882 = metadata !{i32 171, i32 0, metadata !883, null}
!883 = metadata !{i32 786443, metadata !542, i32 170, i32 0, metadata !231, i32 29} ; [ DW_TAG_lexical_block ] [/home/ibriggs/Gklee/Gklee/runtime/CudaRuntime/cudaMemManage.cpp]
!884 = metadata !{i32 176, i32 0, metadata !885, null}
!885 = metadata !{i32 786443, metadata !555, i32 175, i32 0, metadata !231, i32 30} ; [ DW_TAG_lexical_block ] [/home/ibriggs/Gklee/Gklee/runtime/CudaRuntime/cudaMemManage.cpp]
!886 = metadata !{i32 181, i32 0, metadata !887, null}
!887 = metadata !{i32 786443, metadata !565, i32 180, i32 0, metadata !231, i32 31} ; [ DW_TAG_lexical_block ] [/home/ibriggs/Gklee/Gklee/runtime/CudaRuntime/cudaMemManage.cpp]
!888 = metadata !{i32 187, i32 0, metadata !889, null}
!889 = metadata !{i32 786443, metadata !576, i32 186, i32 0, metadata !231, i32 32} ; [ DW_TAG_lexical_block ] [/home/ibriggs/Gklee/Gklee/runtime/CudaRuntime/cudaMemManage.cpp]
!890 = metadata !{i32 192, i32 0, metadata !891, null}
!891 = metadata !{i32 786443, metadata !588, i32 191, i32 0, metadata !231, i32 33} ; [ DW_TAG_lexical_block ] [/home/ibriggs/Gklee/Gklee/runtime/CudaRuntime/cudaMemManage.cpp]
!892 = metadata !{i32 198, i32 0, metadata !893, null}
!893 = metadata !{i32 786443, metadata !598, i32 197, i32 0, metadata !231, i32 34} ; [ DW_TAG_lexical_block ] [/home/ibriggs/Gklee/Gklee/runtime/CudaRuntime/cudaMemManage.cpp]
!894 = metadata !{i32 203, i32 0, metadata !895, null}
!895 = metadata !{i32 786443, metadata !609, i32 201, i32 0, metadata !231, i32 35} ; [ DW_TAG_lexical_block ] [/home/ibriggs/Gklee/Gklee/runtime/CudaRuntime/cudaMemManage.cpp]
!896 = metadata !{i32 209, i32 0, metadata !897, null}
!897 = metadata !{i32 786443, metadata !619, i32 207, i32 0, metadata !231, i32 36} ; [ DW_TAG_lexical_block ] [/home/ibriggs/Gklee/Gklee/runtime/CudaRuntime/cudaMemManage.cpp]
!898 = metadata !{i32 214, i32 0, metadata !899, null}
!899 = metadata !{i32 786443, metadata !630, i32 213, i32 0, metadata !231, i32 37} ; [ DW_TAG_lexical_block ] [/home/ibriggs/Gklee/Gklee/runtime/CudaRuntime/cudaMemManage.cpp]
!900 = metadata !{i32 220, i32 0, metadata !901, null}
!901 = metadata !{i32 786443, metadata !641, i32 219, i32 0, metadata !231, i32 38} ; [ DW_TAG_lexical_block ] [/home/ibriggs/Gklee/Gklee/runtime/CudaRuntime/cudaMemManage.cpp]
!902 = metadata !{i32 225, i32 0, metadata !903, null}
!903 = metadata !{i32 786443, metadata !653, i32 224, i32 0, metadata !231, i32 39} ; [ DW_TAG_lexical_block ] [/home/ibriggs/Gklee/Gklee/runtime/CudaRuntime/cudaMemManage.cpp]
!904 = metadata !{i32 226, i32 0, metadata !903, null}
!905 = metadata !{i32 231, i32 0, metadata !906, null}
!906 = metadata !{i32 786443, metadata !663, i32 230, i32 0, metadata !231, i32 40} ; [ DW_TAG_lexical_block ] [/home/ibriggs/Gklee/Gklee/runtime/CudaRuntime/cudaMemManage.cpp]
!907 = metadata !{i32 235, i32 0, metadata !908, null}
!908 = metadata !{i32 786443, metadata !674, i32 234, i32 0, metadata !231, i32 41} ; [ DW_TAG_lexical_block ] [/home/ibriggs/Gklee/Gklee/runtime/CudaRuntime/cudaMemManage.cpp]
!909 = metadata !{i32 239, i32 0, metadata !910, null}
!910 = metadata !{i32 786443, metadata !681, i32 238, i32 0, metadata !231, i32 42} ; [ DW_TAG_lexical_block ] [/home/ibriggs/Gklee/Gklee/runtime/CudaRuntime/cudaMemManage.cpp]
!911 = metadata !{i32 240, i32 0, metadata !910, null}
!912 = metadata !{i32 245, i32 0, metadata !913, null}
!913 = metadata !{i32 786443, metadata !689, i32 244, i32 0, metadata !231, i32 43} ; [ DW_TAG_lexical_block ] [/home/ibriggs/Gklee/Gklee/runtime/CudaRuntime/cudaMemManage.cpp]
!914 = metadata !{i32 250, i32 0, metadata !915, null}
!915 = metadata !{i32 786443, metadata !699, i32 249, i32 0, metadata !231, i32 44} ; [ DW_TAG_lexical_block ] [/home/ibriggs/Gklee/Gklee/runtime/CudaRuntime/cudaMemManage.cpp]
!916 = metadata !{i32 255, i32 0, metadata !917, null}
!917 = metadata !{i32 786443, metadata !710, i32 254, i32 0, metadata !231, i32 45} ; [ DW_TAG_lexical_block ] [/home/ibriggs/Gklee/Gklee/runtime/CudaRuntime/cudaMemManage.cpp]
!918 = metadata !{i32 260, i32 0, metadata !919, null}
!919 = metadata !{i32 786443, metadata !718, i32 259, i32 0, metadata !231, i32 46} ; [ DW_TAG_lexical_block ] [/home/ibriggs/Gklee/Gklee/runtime/CudaRuntime/cudaMemManage.cpp]
!920 = metadata !{i32 264, i32 0, metadata !921, null}
!921 = metadata !{i32 786443, metadata !727, i32 263, i32 0, metadata !231, i32 47} ; [ DW_TAG_lexical_block ] [/home/ibriggs/Gklee/Gklee/runtime/CudaRuntime/cudaMemManage.cpp]
